; Listing generated by Microsoft (R) Optimizing Compiler Version 19.37.32824.0 

include listing.inc

INCLUDELIB OLDNAMES

PUBLIC	??_C@_03OFAPEBGM@?$CFs?6@			; `string'
PUBLIC	??_C@_07BPPBCINE@images?1@			; `string'
PUBLIC	??_C@_01KMDKNFGN@?1@				; `string'
PUBLIC	??_C@_04EEOGCCFB@?4png@				; `string'
PUBLIC	??_C@_02DPKJAMEF@?$CFd@				; `string'
PUBLIC	??_C@_0BA@JFAFENDL@tried?5to?5load?5?$CC@	; `string'
PUBLIC	??_C@_03BMLMMEDG@?$CC?4?6@			; `string'
EXTRN	__imp_malloc:PROC
EXTRN	__imp_DebugBreak:PROC
EXTRN	__imp_strcat_s:PROC
EXTRN	__imp___glewBindTextureUnit:QWORD
EXTRN	__imp_glTexImage2D:PROC
EXTRN	__imp_CreateThread:PROC
EXTRN	__imp_CloseHandle:PROC
EXTRN	__imp_strcpy_s:PROC
EXTRN	__imp___glewActiveTexture:QWORD
EXTRN	__imp_glTexParameteri:PROC
EXTRN	__imp___stdio_common_vfprintf:PROC
EXTRN	__imp___stdio_common_vsprintf_s:PROC
EXTRN	__imp___glewCreateTextures:QWORD
EXTRN	__imp_WaitForSingleObject:PROC
EXTRN	__imp___acrt_iob_func:PROC
EXTRN	__imp_glBindTexture:PROC
EXTRN	__security_check_cookie:PROC
COMM	height:DWORD
COMM	quadTempSize:DWORD
COMM	mode:QWORD
COMM	shouldDraw:BYTE
COMM	cellSize:QWORD
COMM	curMeshLoc:DWORD
COMM	monitor:QWORD
COMM	squishHead:QWORD
COMM	delInd:QWORD
COMM	cTime:QWORD
COMM	camPosLoc:DWORD
COMM	width:DWORD
COMM	delIndSize:QWORD
COMM	delMesh:QWORD
COMM	checkedCells:QWORD
COMM	mainColHead:QWORD
COMM	indicesSize:QWORD
COMM	nodeExcess:DWORD
COMM	playerSpeed:DWORD
COMM	frequency:QWORD
COMM	quadTempLen:DWORD
COMM	vertices:QWORD
COMM	frameTime:DWORD
COMM	delMeshLen:DWORD
COMM	window:QWORD
COMM	?_OptionsStorage@?1??__local_stdio_scanf_options@@9@9:QWORD							; `__local_stdio_scanf_options'::`2'::_OptionsStorage
COMM	delIndLen:DWORD
COMM	avgDT:DWORD
COMM	verticesSize:QWORD
COMM	indTempSize:DWORD
COMM	shouldMoveCam:BYTE
COMM	curIndiciesLoc:DWORD
COMM	stride:DWORD
COMM	?_OptionsStorage@?1??__local_stdio_printf_options@@9@9:QWORD							; `__local_stdio_printf_options'::`2'::_OptionsStorage
COMM	glError:DWORD
COMM	query:DWORD
COMM	shader:DWORD
COMM	noOfCellChecks:DWORD
COMM	strideTakeTwo:DWORD
COMM	delMeshSize:QWORD
COMM	sliderHead:QWORD
COMM	channels:DWORD
COMM	refreshRate:DWORD
COMM	vertexIterator:DWORD
COMM	camPosition:QWORD
COMM	totalCheckedCells:QWORD
COMM	logRefreshRate:DWORD
COMM	indTempLen:DWORD
COMM	pTime:QWORD
COMM	indices:QWORD
_DATA	ENDS
CONST	ENDS
;	COMDAT ??_C@_03BMLMMEDG@?$CC?4?6@
CONST	SEGMENT
??_C@_03BMLMMEDG@?$CC?4?6@ DB '".', 0aH, 00H		; `string'
CONST	ENDS
;	COMDAT ??_C@_0BA@JFAFENDL@tried?5to?5load?5?$CC@
CONST	SEGMENT
??_C@_0BA@JFAFENDL@tried?5to?5load?5?$CC@ DB 'tried to load "', 00H ; `string'
CONST	ENDS
;	COMDAT ??_C@_02DPKJAMEF@?$CFd@
CONST	SEGMENT
??_C@_02DPKJAMEF@?$CFd@ DB '%d', 00H			; `string'
CONST	ENDS
;	COMDAT ??_C@_04EEOGCCFB@?4png@
CONST	SEGMENT
??_C@_04EEOGCCFB@?4png@ DB '.png', 00H			; `string'
CONST	ENDS
;	COMDAT ??_C@_01KMDKNFGN@?1@
CONST	SEGMENT
??_C@_01KMDKNFGN@?1@ DB '/', 00H			; `string'
CONST	ENDS
;	COMDAT ??_C@_07BPPBCINE@images?1@
CONST	SEGMENT
??_C@_07BPPBCINE@images?1@ DB 'images/', 00H		; `string'
CONST	ENDS
;	COMDAT ??_C@_03OFAPEBGM@?$CFs?6@
CONST	SEGMENT
??_C@_03OFAPEBGM@?$CFs?6@ DB '%s', 0aH, 00H		; `string'
CONST	ENDS
PUBLIC	InitSingleTexture2
PUBLIC	InitSingleTexture
PUBLIC	InitAnimator
PUBLIC	print
PUBLIC	sprintf_s
PUBLIC	_vsprintf_s_l
PUBLIC	printf
PUBLIC	_vfprintf_l
PUBLIC	__local_stdio_printf_options
PUBLIC	__isa_available_default
PUBLIC	__real@3a83126f
PUBLIC	__real@3be56042
PUBLIC	__real@3d0793de
PUBLIC	__real@3d23d70a
PUBLIC	__real@3d695103
PUBLIC	__real@3d8f5c29
PUBLIC	__real@3d99999a
PUBLIC	__real@3daaaaab
PUBLIC	__real@3dcccccd
PUBLIC	__real@3e19999a
PUBLIC	__real@3e4ccccd
PUBLIC	__real@3e6b851f
PUBLIC	__real@3e851eb8
PUBLIC	__real@3e911111
PUBLIC	__real@3e99999a
PUBLIC	__real@3ead82d8
PUBLIC	__real@3eaf7660
PUBLIC	__real@3ee3c2e5
PUBLIC	__real@3ee66666
PUBLIC	__real@3f000000
PUBLIC	__real@3f053f7d
PUBLIC	__real@3f127d28
PUBLIC	__real@3f151034
PUBLIC	__real@3f19999a
PUBLIC	__real@3f33b646
PUBLIC	__real@3f3dcd14
PUBLIC	__real@3f59999a
PUBLIC	__real@3f6147ae
PUBLIC	__real@3f666666
PUBLIC	__real@3f800000
PUBLIC	__real@3f80624e
PUBLIC	__real@3f866666
PUBLIC	__real@3fdd1745c0000000
PUBLIC	__real@3ff0000000000000
PUBLIC	__real@40000000
PUBLIC	__real@40400000
PUBLIC	__real@40800000
PUBLIC	__real@40c00000
PUBLIC	__real@40e00000
PUBLIC	__real@41200000
PUBLIC	__real@41700000
PUBLIC	__real@41a00000
PUBLIC	__real@437f0000
PUBLIC	__real@44000000
PUBLIC	__real@447a0000
PUBLIC	__real@46fffe00
PUBLIC	__real@477fff00
PUBLIC	__real@49742400
PUBLIC	__real@bf2d5533
PUBLIC	__real@bf38f5c3
PUBLIC	__real@bf3ae148
PUBLIC	__real@bf800000
PUBLIC	__xmm@00000000000000040000000000000000
PUBLIC	__xmm@00000002000000000000000400000000
PUBLIC	__xmm@00000002000000020000000200000002
PUBLIC	__xmm@00000003000000030000000300000003
PUBLIC	__xmm@00000004000000040000000800000008
PUBLIC	__xmm@00000004000000080000000800000008
PUBLIC	__xmm@00000200000002000000020000000200
PUBLIC	__xmm@00080008000800080008000800080008
PUBLIC	__xmm@00ff00ff00ff00ff00ff00ff00ff00ff
PUBLIC	__xmm@01010000010100000101000001010000
PUBLIC	__xmm@08a914e808a914e808a914e808a914e8
PUBLIC	__xmm@11c8e09e11c8e09e11c8e09e11c8e09e
PUBLIC	__xmm@11c8f9c311c8f9c311c8f9c311c8f9c3
PUBLIC	__xmm@12d0046b12d0046b12d0046b12d0046b
PUBLIC	__xmm@166f166f166f166f166f166f166f166f
PUBLIC	__xmm@1c5a1c5a1c5a1c5a1c5a1c5a1c5a1c5a
PUBLIC	__xmm@3ed7c57d3e9249253e7409953e3a9de9
PUBLIC	__xmm@3f8000003f3333333e4ccccd00000000
PUBLIC	__xmm@80000000800000008000000080000000
PUBLIC	__xmm@80808080808080808080808080808080
PUBLIC	__xmm@bcb499853d1b8e3abeed097dbd1b8e3a
PUBLIC	__xmm@e09ee565e09ee565e09ee565e09ee565
PUBLIC	__xmm@e9cf12d0e9cf12d0e9cf12d0e9cf12d0
PUBLIC	__xmm@eb1a08a9eb1a08a9eb1a08a9eb1a08a9
PUBLIC	__xmm@f493f493f493f493f493f493f493f493
PUBLIC	__xmm@f9c31a9df9c31a9df9c31a9df9c31a9d
PUBLIC	__xmm@fa7efa7efa7efa7efa7efa7efa7efa7e
EXTRN	__GSHandlerCheck:PROC
EXTRN	__chkstk:PROC
EXTRN	logf:PROC
EXTRN	memcpy:PROC
EXTRN	memset:PROC
EXTRN	pow:PROC
EXTRN	sqrtf:PROC
EXTRN	strcmp:PROC
EXTRN	__ImageBase:BYTE
EXTRN	__isa_available:DWORD
EXTRN	__security_cookie:QWORD
EXTRN	_fltused:DWORD
EXTRN	_tls_index:DWORD
;	COMDAT __isa_available_default
_BSS	SEGMENT
__isa_available_default DD 01H DUP (?)
_BSS	ENDS
;	COMDAT pdata
pdata	SEGMENT
$pdata$InitSingleTexture2 DD imagerel $LN47@InitSingle
	DD	imagerel $LN47@InitSingle+710
	DD	imagerel $unwind$InitSingleTexture2
pdata	ENDS
;	COMDAT pdata
pdata	SEGMENT
$pdata$InitSingleTexture DD imagerel $LN47@InitSingle
	DD	imagerel $LN47@InitSingle+708
	DD	imagerel $unwind$InitSingleTexture
pdata	ENDS
;	COMDAT pdata
pdata	SEGMENT
$pdata$InitAnimator DD imagerel $LN90@InitAnimat
	DD	imagerel $LN90@InitAnimat+1454
	DD	imagerel $unwind$InitAnimator
pdata	ENDS
;	COMDAT pdata
pdata	SEGMENT
$pdata$print DD	imagerel $LN4@print
	DD	imagerel $LN4@print+69
	DD	imagerel $unwind$print
pdata	ENDS
;	COMDAT pdata
pdata	SEGMENT
$pdata$ThrowError DD imagerel ThrowError
	DD	imagerel ThrowError+30
	DD	imagerel $unwind$ThrowError
pdata	ENDS
;	COMDAT pdata
pdata	SEGMENT
$pdata$sprintf_s DD imagerel $LN6@sprintf_s
	DD	imagerel $LN6@sprintf_s+88
	DD	imagerel $unwind$sprintf_s
pdata	ENDS
;	COMDAT pdata
pdata	SEGMENT
$pdata$_vsprintf_s_l DD imagerel $LN4@vsprintf_s
	DD	imagerel $LN4@vsprintf_s+92
	DD	imagerel $unwind$_vsprintf_s_l
pdata	ENDS
;	COMDAT pdata
pdata	SEGMENT
$pdata$printf DD imagerel $LN6@printf
	DD	imagerel $LN6@printf+85
	DD	imagerel $unwind$printf
pdata	ENDS
;	COMDAT pdata
pdata	SEGMENT
$pdata$_vfprintf_l DD imagerel $LN4@vfprintf_l
	DD	imagerel $LN4@vfprintf_l+68
	DD	imagerel $unwind$_vfprintf_l
;	COMDAT __xmm@fa7efa7efa7efa7efa7efa7efa7efa7e
CONST	SEGMENT
__xmm@fa7efa7efa7efa7efa7efa7efa7efa7e DB '~', 0faH, '~', 0faH, '~', 0faH
	DB	'~', 0faH, '~', 0faH, '~', 0faH, '~', 0faH, '~', 0faH
CONST	ENDS
;	COMDAT __xmm@f9c31a9df9c31a9df9c31a9df9c31a9d
CONST	SEGMENT
__xmm@f9c31a9df9c31a9df9c31a9df9c31a9d DB 09dH, 01aH, 0c3H, 0f9H, 09dH, 01aH
	DB	0c3H, 0f9H, 09dH, 01aH, 0c3H, 0f9H, 09dH, 01aH, 0c3H, 0f9H
CONST	ENDS
;	COMDAT __xmm@f493f493f493f493f493f493f493f493
CONST	SEGMENT
__xmm@f493f493f493f493f493f493f493f493 DB 093H, 0f4H, 093H, 0f4H, 093H, 0f4H
	DB	093H, 0f4H, 093H, 0f4H, 093H, 0f4H, 093H, 0f4H, 093H, 0f4H
CONST	ENDS
;	COMDAT __xmm@eb1a08a9eb1a08a9eb1a08a9eb1a08a9
CONST	SEGMENT
__xmm@eb1a08a9eb1a08a9eb1a08a9eb1a08a9 DB 0a9H, 08H, 01aH, 0ebH, 0a9H, 08H
	DB	01aH, 0ebH, 0a9H, 08H, 01aH, 0ebH, 0a9H, 08H, 01aH, 0ebH
CONST	ENDS
;	COMDAT __xmm@e9cf12d0e9cf12d0e9cf12d0e9cf12d0
CONST	SEGMENT
__xmm@e9cf12d0e9cf12d0e9cf12d0e9cf12d0 DB 0d0H, 012H, 0cfH, 0e9H, 0d0H, 012H
	DB	0cfH, 0e9H, 0d0H, 012H, 0cfH, 0e9H, 0d0H, 012H, 0cfH, 0e9H
CONST	ENDS
;	COMDAT __xmm@e09ee565e09ee565e09ee565e09ee565
CONST	SEGMENT
__xmm@e09ee565e09ee565e09ee565e09ee565 DB 'e', 0e5H, 09eH, 0e0H, 'e', 0e5H
	DB	09eH, 0e0H, 'e', 0e5H, 09eH, 0e0H, 'e', 0e5H, 09eH, 0e0H
CONST	ENDS
;	COMDAT __xmm@bcb499853d1b8e3abeed097dbd1b8e3a
CONST	SEGMENT
__xmm@bcb499853d1b8e3abeed097dbd1b8e3a DB ':', 08eH, 01bH, 0bdH, '}', 09H
	DB	0edH, 0beH, ':', 08eH, 01bH, '=', 085H, 099H, 0b4H, 0bcH
CONST	ENDS
;	COMDAT __xmm@80808080808080808080808080808080
CONST	SEGMENT
__xmm@80808080808080808080808080808080 DB 080H, 080H, 080H, 080H, 080H, 080H
	DB	080H, 080H, 080H, 080H, 080H, 080H, 080H, 080H, 080H, 080H
CONST	ENDS
;	COMDAT __xmm@80000000800000008000000080000000
CONST	SEGMENT
__xmm@80000000800000008000000080000000 DB 00H, 00H, 00H, 080H, 00H, 00H, 00H
	DB	080H, 00H, 00H, 00H, 080H, 00H, 00H, 00H, 080H
CONST	ENDS
;	COMDAT __xmm@3f8000003f3333333e4ccccd00000000
CONST	SEGMENT
__xmm@3f8000003f3333333e4ccccd00000000 DB 00H, 00H, 00H, 00H, 0cdH, 0ccH, 'L'
	DB	'>333?', 00H, 00H, 080H, '?'
CONST	ENDS
;	COMDAT __xmm@3ed7c57d3e9249253e7409953e3a9de9
CONST	SEGMENT
__xmm@3ed7c57d3e9249253e7409953e3a9de9 DB 0e9H, 09dH, ':>', 095H, 09H, 't'
	DB	'>%I', 092H, '>}', 0c5H, 0d7H, '>'
CONST	ENDS
;	COMDAT __xmm@1c5a1c5a1c5a1c5a1c5a1c5a1c5a1c5a
CONST	SEGMENT
__xmm@1c5a1c5a1c5a1c5a1c5a1c5a1c5a1c5a DB 'Z', 01cH, 'Z', 01cH, 'Z', 01cH
	DB	'Z', 01cH, 'Z', 01cH, 'Z', 01cH, 'Z', 01cH, 'Z', 01cH
CONST	ENDS
;	COMDAT __xmm@166f166f166f166f166f166f166f166f
CONST	SEGMENT
__xmm@166f166f166f166f166f166f166f166f DB 'o', 016H, 'o', 016H, 'o', 016H
	DB	'o', 016H, 'o', 016H, 'o', 016H, 'o', 016H, 'o', 016H
CONST	ENDS
;	COMDAT __xmm@12d0046b12d0046b12d0046b12d0046b
CONST	SEGMENT
__xmm@12d0046b12d0046b12d0046b12d0046b DB 'k', 04H, 0d0H, 012H, 'k', 04H, 0d0H
	DB	012H, 'k', 04H, 0d0H, 012H, 'k', 04H, 0d0H, 012H
CONST	ENDS
;	COMDAT __xmm@11c8f9c311c8f9c311c8f9c311c8f9c3
CONST	SEGMENT
__xmm@11c8f9c311c8f9c311c8f9c311c8f9c3 DB 0c3H, 0f9H, 0c8H, 011H, 0c3H, 0f9H
	DB	0c8H, 011H, 0c3H, 0f9H, 0c8H, 011H, 0c3H, 0f9H, 0c8H, 011H
CONST	ENDS
;	COMDAT __xmm@11c8e09e11c8e09e11c8e09e11c8e09e
CONST	SEGMENT
__xmm@11c8e09e11c8e09e11c8e09e11c8e09e DB 09eH, 0e0H, 0c8H, 011H, 09eH, 0e0H
	DB	0c8H, 011H, 09eH, 0e0H, 0c8H, 011H, 09eH, 0e0H, 0c8H, 011H
CONST	ENDS
;	COMDAT __xmm@08a914e808a914e808a914e808a914e8
CONST	SEGMENT
__xmm@08a914e808a914e808a914e808a914e8 DB 0e8H, 014H, 0a9H, 08H, 0e8H, 014H
	DB	0a9H, 08H, 0e8H, 014H, 0a9H, 08H, 0e8H, 014H, 0a9H, 08H
CONST	ENDS
;	COMDAT __xmm@01010000010100000101000001010000
CONST	SEGMENT
__xmm@01010000010100000101000001010000 DB 00H, 00H, 01H, 01H, 00H, 00H, 01H
	DB	01H, 00H, 00H, 01H, 01H, 00H, 00H, 01H, 01H
CONST	ENDS
;	COMDAT __xmm@00ff00ff00ff00ff00ff00ff00ff00ff
CONST	SEGMENT
__xmm@00ff00ff00ff00ff00ff00ff00ff00ff DB 0ffH, 00H, 0ffH, 00H, 0ffH, 00H
	DB	0ffH, 00H, 0ffH, 00H, 0ffH, 00H, 0ffH, 00H, 0ffH, 00H
CONST	ENDS
;	COMDAT __xmm@00080008000800080008000800080008
CONST	SEGMENT
__xmm@00080008000800080008000800080008 DB 08H, 00H, 08H, 00H, 08H, 00H, 08H
	DB	00H, 08H, 00H, 08H, 00H, 08H, 00H, 08H, 00H
CONST	ENDS
;	COMDAT __xmm@00000200000002000000020000000200
CONST	SEGMENT
__xmm@00000200000002000000020000000200 DB 00H, 02H, 00H, 00H, 00H, 02H, 00H
	DB	00H, 00H, 02H, 00H, 00H, 00H, 02H, 00H, 00H
CONST	ENDS
;	COMDAT __xmm@00000004000000080000000800000008
CONST	SEGMENT
__xmm@00000004000000080000000800000008 DB 08H, 00H, 00H, 00H, 08H, 00H, 00H
	DB	00H, 08H, 00H, 00H, 00H, 04H, 00H, 00H, 00H
CONST	ENDS
;	COMDAT __xmm@00000004000000040000000800000008
CONST	SEGMENT
__xmm@00000004000000040000000800000008 DB 08H, 00H, 00H, 00H, 08H, 00H, 00H
	DB	00H, 04H, 00H, 00H, 00H, 04H, 00H, 00H, 00H
CONST	ENDS
;	COMDAT __xmm@00000003000000030000000300000003
CONST	SEGMENT
__xmm@00000003000000030000000300000003 DB 03H, 00H, 00H, 00H, 03H, 00H, 00H
	DB	00H, 03H, 00H, 00H, 00H, 03H, 00H, 00H, 00H
CONST	ENDS
;	COMDAT __xmm@00000002000000020000000200000002
CONST	SEGMENT
__xmm@00000002000000020000000200000002 DB 02H, 00H, 00H, 00H, 02H, 00H, 00H
	DB	00H, 02H, 00H, 00H, 00H, 02H, 00H, 00H, 00H
CONST	ENDS
;	COMDAT __xmm@00000002000000000000000400000000
CONST	SEGMENT
__xmm@00000002000000000000000400000000 DB 00H, 00H, 00H, 00H, 04H, 00H, 00H
	DB	00H, 00H, 00H, 00H, 00H, 02H, 00H, 00H, 00H
CONST	ENDS
;	COMDAT __xmm@00000000000000040000000000000000
CONST	SEGMENT
__xmm@00000000000000040000000000000000 DB 00H, 00H, 00H, 00H, 00H, 00H, 00H
	DB	00H, 04H, 00H, 00H, 00H, 00H, 00H, 00H, 00H
CONST	ENDS
;	COMDAT __real@bf800000
CONST	SEGMENT
__real@bf800000 DD 0bf800000r			; -1
CONST	ENDS
;	COMDAT __real@bf3ae148
CONST	SEGMENT
__real@bf3ae148 DD 0bf3ae148r			; -0.73
CONST	ENDS
;	COMDAT __real@bf38f5c3
CONST	SEGMENT
__real@bf38f5c3 DD 0bf38f5c3r			; -0.7225
CONST	ENDS
;	COMDAT __real@bf2d5533
CONST	SEGMENT
__real@bf2d5533 DD 0bf2d5533r			; -0.677081
CONST	ENDS
;	COMDAT __real@49742400
CONST	SEGMENT
__real@49742400 DD 049742400r			; 1e+06
CONST	ENDS
;	COMDAT __real@477fff00
CONST	SEGMENT
__real@477fff00 DD 0477fff00r			; 65535
CONST	ENDS
;	COMDAT __real@46fffe00
CONST	SEGMENT
__real@46fffe00 DD 046fffe00r			; 32767
CONST	ENDS
;	COMDAT __real@447a0000
CONST	SEGMENT
__real@447a0000 DD 0447a0000r			; 1000
CONST	ENDS
;	COMDAT __real@44000000
CONST	SEGMENT
__real@44000000 DD 044000000r			; 512
CONST	ENDS
;	COMDAT __real@437f0000
CONST	SEGMENT
__real@437f0000 DD 0437f0000r			; 255
CONST	ENDS
;	COMDAT __real@41a00000
CONST	SEGMENT
__real@41a00000 DD 041a00000r			; 20
CONST	ENDS
;	COMDAT __real@41700000
CONST	SEGMENT
__real@41700000 DD 041700000r			; 15
CONST	ENDS
;	COMDAT __real@41200000
CONST	SEGMENT
__real@41200000 DD 041200000r			; 10
CONST	ENDS
;	COMDAT __real@40e00000
CONST	SEGMENT
__real@40e00000 DD 040e00000r			; 7
CONST	ENDS
;	COMDAT __real@40c00000
CONST	SEGMENT
__real@40c00000 DD 040c00000r			; 6
CONST	ENDS
;	COMDAT __real@40800000
CONST	SEGMENT
__real@40800000 DD 040800000r			; 4
CONST	ENDS
;	COMDAT __real@40400000
CONST	SEGMENT
__real@40400000 DD 040400000r			; 3
CONST	ENDS
;	COMDAT __real@40000000
CONST	SEGMENT
__real@40000000 DD 040000000r			; 2
CONST	ENDS
;	COMDAT __real@3ff0000000000000
CONST	SEGMENT
__real@3ff0000000000000 DQ 03ff0000000000000r	; 1
CONST	ENDS
;	COMDAT __real@3fdd1745c0000000
CONST	SEGMENT
__real@3fdd1745c0000000 DQ 03fdd1745c0000000r	; 0.454545
CONST	ENDS
;	COMDAT __real@3f866666
CONST	SEGMENT
__real@3f866666 DD 03f866666r			; 1.05
CONST	ENDS
;	COMDAT __real@3f80624e
CONST	SEGMENT
__real@3f80624e DD 03f80624er			; 1.003
CONST	ENDS
;	COMDAT __real@3f800000
CONST	SEGMENT
__real@3f800000 DD 03f800000r			; 1
CONST	ENDS
;	COMDAT __real@3f666666
CONST	SEGMENT
__real@3f666666 DD 03f666666r			; 0.9
CONST	ENDS
;	COMDAT __real@3f6147ae
CONST	SEGMENT
__real@3f6147ae DD 03f6147aer			; 0.88
CONST	ENDS
;	COMDAT __real@3f59999a
CONST	SEGMENT
__real@3f59999a DD 03f59999ar			; 0.85
CONST	ENDS
;	COMDAT __real@3f3dcd14
CONST	SEGMENT
__real@3f3dcd14 DD 03f3dcd14r			; 0.74141
CONST	ENDS
;	COMDAT __real@3f33b646
CONST	SEGMENT
__real@3f33b646 DD 03f33b646r			; 0.702
CONST	ENDS
;	COMDAT __real@3f19999a
CONST	SEGMENT
__real@3f19999a DD 03f19999ar			; 0.6
CONST	ENDS
;	COMDAT __real@3f151034
CONST	SEGMENT
__real@3f151034 DD 03f151034r			; 0.582278
CONST	ENDS
;	COMDAT __real@3f127d28
CONST	SEGMENT
__real@3f127d28 DD 03f127d28r			; 0.572222
CONST	ENDS
;	COMDAT __real@3f053f7d
CONST	SEGMENT
__real@3f053f7d DD 03f053f7dr			; 0.5205
CONST	ENDS
;	COMDAT __real@3f000000
CONST	SEGMENT
__real@3f000000 DD 03f000000r			; 0.5
CONST	ENDS
;	COMDAT __real@3ee66666
CONST	SEGMENT
__real@3ee66666 DD 03ee66666r			; 0.45
CONST	ENDS
;	COMDAT __real@3ee3c2e5
CONST	SEGMENT
__real@3ee3c2e5 DD 03ee3c2e5r			; 0.444846
CONST	ENDS
;	COMDAT __real@3eaf7660
CONST	SEGMENT
__real@3eaf7660 DD 03eaf7660r			; 0.3427
CONST	ENDS
;	COMDAT __real@3ead82d8
CONST	SEGMENT
__real@3ead82d8 DD 03ead82d8r			; 0.338889
CONST	ENDS
;	COMDAT __real@3e99999a
CONST	SEGMENT
__real@3e99999a DD 03e99999ar			; 0.3
CONST	ENDS
;	COMDAT __real@3e911111
CONST	SEGMENT
__real@3e911111 DD 03e911111r			; 0.283333
CONST	ENDS
;	COMDAT __real@3e851eb8
CONST	SEGMENT
__real@3e851eb8 DD 03e851eb8r			; 0.26
CONST	ENDS
;	COMDAT __real@3e6b851f
CONST	SEGMENT
__real@3e6b851f DD 03e6b851fr			; 0.23
CONST	ENDS
;	COMDAT __real@3e4ccccd
CONST	SEGMENT
__real@3e4ccccd DD 03e4ccccdr			; 0.2
CONST	ENDS
;	COMDAT __real@3e19999a
CONST	SEGMENT
__real@3e19999a DD 03e19999ar			; 0.15
CONST	ENDS
;	COMDAT __real@3dcccccd
CONST	SEGMENT
__real@3dcccccd DD 03dcccccdr			; 0.1
CONST	ENDS
;	COMDAT __real@3daaaaab
CONST	SEGMENT
__real@3daaaaab DD 03daaaaabr			; 0.0833333
CONST	ENDS
;	COMDAT __real@3d99999a
CONST	SEGMENT
__real@3d99999a DD 03d99999ar			; 0.075
CONST	ENDS
;	COMDAT __real@3d8f5c29
CONST	SEGMENT
__real@3d8f5c29 DD 03d8f5c29r			; 0.07
CONST	ENDS
;	COMDAT __real@3d695103
CONST	SEGMENT
__real@3d695103 DD 03d695103r			; 0.056962
CONST	ENDS
;	COMDAT __real@3d23d70a
CONST	SEGMENT
__real@3d23d70a DD 03d23d70ar			; 0.04
CONST	ENDS
;	COMDAT __real@3d0793de
CONST	SEGMENT
__real@3d0793de DD 03d0793der			; 0.0331
CONST	ENDS
;	COMDAT __real@3be56042
CONST	SEGMENT
__real@3be56042 DD 03be56042r			; 0.007
CONST	ENDS
;	COMDAT __real@3a83126f
CONST	SEGMENT
__real@3a83126f DD 03a83126fr			; 0.001
CONST	ENDS
;	COMDAT xdata
xdata	SEGMENT
$unwind$_vfprintf_l DQ 00009640f00060f01r	; 1.30596e-308
	DQ	0700b520f0008340fr		; 5.30195e+231
xdata	ENDS
;	COMDAT xdata
xdata	SEGMENT
$unwind$printf DQ 07017521b00041b01r		; 9.05146e+231
	DD	030156016H
xdata	ENDS
;	COMDAT xdata
xdata	SEGMENT
$unwind$_vsprintf_s_l DQ 00009640f00060f01r	; 1.30596e-308
	DQ	0700b520f0008340fr		; 5.30195e+231
xdata	ENDS
;	COMDAT xdata
xdata	SEGMENT
$unwind$sprintf_s DQ 0700e621200051201r		; 5.89629e+231
	DQ	00000300b500c600dr		; 2.60991e-310
xdata	ENDS
;	COMDAT xdata
xdata	SEGMENT
$unwind$ThrowError DQ 00000420400010401r	; 3.58617e-310
xdata	ENDS
;	COMDAT xdata
xdata	SEGMENT
$unwind$print DQ 03002520600020601r		; 1.97773e-77
xdata	ENDS
;	COMDAT xdata
xdata	SEGMENT
$unwind$InitAnimator DQ 0000df4c1000bc101r	; 1.94083e-308
	DQ	0e01de221000e54b9r		; -1.00167e+155
	DQ	060167017c019d01br		; 7.52106e+154
	DD	03015H
xdata	ENDS
;	COMDAT xdata
xdata	SEGMENT
$unwind$InitSingleTexture DQ 0000e74a70008a701r	; 2.01031e-308
	DQ	0000f540f000d349cr		; 2.13167e-308
	DD	0600b920fH
xdata	ENDS
;	COMDAT xdata
xdata	SEGMENT
$unwind$InitSingleTexture2 DQ 0000f749a000a9a01r ; 2.14935e-308
	DQ	00010341300115413r		; 2.25336e-308
	DQ	0600be00df00f9213r		; 4.67182e+154
xdata	ENDS
END
