; Listing generated by Microsoft (R) Optimizing Compiler Version 19.37.32824.0 

include listing.inc

INCLUDELIB OLDNAMES

PUBLIC	??_C@_0O@DCOCDJND@ERROR?5?$CFd?3?6?$CFs?6@	; `string'
PUBLIC	??_C@_02DKCKIIND@?$CFs@				; `string'
EXTRN	__imp_glGetError:PROC
EXTRN	__imp_gluErrorString:PROC
;	COMDAT ??_C@_02DKCKIIND@?$CFs@
CONST	SEGMENT
??_C@_02DKCKIIND@?$CFs@ DB '%s', 00H			; `string'
CONST	ENDS
;	COMDAT ??_C@_0O@DCOCDJND@ERROR?5?$CFd?3?6?$CFs?6@
CONST	SEGMENT
??_C@_0O@DCOCDJND@ERROR?5?$CFd?3?6?$CFs?6@ DB 'ERROR %d:', 0aH, '%s', 0aH
	DB	00H						; `string'
PUBLIC	glCheckError
PUBLIC	printMultiThreaded
;	COMDAT pdata
pdata	SEGMENT
$pdata$glCheckError DD imagerel $LN12@glCheckErr
	DD	imagerel $LN12@glCheckErr+70
	DD	imagerel $unwind$glCheckError
pdata	ENDS
;	COMDAT pdata
pdata	SEGMENT
$pdata$printMultiThreaded DD imagerel $LN4@printMulti
	DD	imagerel $LN4@printMulti+26
	DD	imagerel $unwind$printMultiThreaded
;	COMDAT xdata
xdata	SEGMENT
$unwind$printMultiThreaded DQ 00000420400010401r ; 3.58617e-310
xdata	ENDS
;	COMDAT xdata
xdata	SEGMENT
$unwind$glCheckError DQ 00000420400010401r	; 3.58617e-310
END
