; Listing generated by Microsoft (R) Optimizing Compiler Version 19.37.32824.0 

include listing.inc

INCLUDELIB OLDNAMES

PUBLIC	cells
PUBLIC	oneBVector
PUBLIC	zeroVector
PUBLIC	cellCheckStates
PUBLIC	zeroBVector
PUBLIC	entityHead
EXTRN	__imp_roundf:PROC
cells	DQ	0100000H DUP (?)
zeroVector DQ	01H DUP (?)
cellCheckStates DB 0100000H DUP (?)
zeroBVector DW	01H DUP (?)
	ALIGN	8

entityHead DQ	01H DUP (?)
COMM	scale:WORD
COMM	curSubTrueAABB:QWORD
COMM	curCheckedCell:QWORD
COMM	onRight:BYTE
COMM	prevCheckedCell:QWORD
COMM	curSliderNode:QWORD
COMM	checkColPtrVal:QWORD
COMM	curTrueAABB:QWORD
COMM	onTop:BYTE
COMM	curAnimator:QWORD
COMM	index:DWORD
COMM	curAABB:QWORD
COMM	curNode:QWORD
COMM	subData:QWORD
COMM	curAnimInd:DWORD
COMM	curSquishable:QWORD
COMM	onLeft:BYTE
COMM	deltaT:DWORD
COMM	curSquishMesh:QWORD
COMM	curCollider:QWORD
COMM	posIsZeroVec:BYTE
COMM	curData:QWORD
COMM	curMesh:QWORD
COMM	subCollider:QWORD
COMM	checkedSub:BYTE
COMM	curColTransform:QWORD
COMM	curSlider:QWORD
COMM	curColPtrVal:QWORD
COMM	curEntity:QWORD
COMM	subBorderIndex:DWORD
COMM	onBottom:BYTE
COMM	solveIndex:DWORD
_DATA	ENDS
oneBVector DB	01H
	DB	01H
PUBLIC	SortGridCell
PUBLIC	RemoveCellChecks
PUBLIC	InsertAtHeadCellChecks
PUBLIC	RemoveEntAppropriate2
PUBLIC	ResetScaleUpdate
PUBLIC	ResetVertexUpdate
PUBLIC	limitedDeltaTime2
PUBLIC	RemoveEntity
PUBLIC	RemoveEntityNode
PUBLIC	EntityInitialize
PUBLIC	UpdateSliders
PUBLIC	UpdateEntities
PUBLIC	UpdateSquishables
;	COMDAT pdata
pdata	SEGMENT
$pdata$SortGridCell DD imagerel $LN31@SortGridCe
	DD	imagerel $LN31@SortGridCe+360
	DD	imagerel $unwind$SortGridCell
pdata	ENDS
;	COMDAT pdata
pdata	SEGMENT
$pdata$limitedDeltaTime2 DD imagerel $LN10@limitedDel
	DD	imagerel $LN10@limitedDel+306
	DD	imagerel $unwind$limitedDeltaTime2
pdata	ENDS
;	COMDAT pdata
pdata	SEGMENT
$pdata$UpdateSliders DD imagerel $LN21@UpdateSlid
	DD	imagerel $LN21@UpdateSlid+27
	DD	imagerel $unwind$UpdateSliders
pdata	ENDS
;	COMDAT pdata
pdata	SEGMENT
$pdata$2$UpdateSliders DD imagerel $LN21@UpdateSlid+27
	DD	imagerel $LN21@UpdateSlid+313
	DD	imagerel $chain$2$UpdateSliders
pdata	ENDS
;	COMDAT pdata
pdata	SEGMENT
$pdata$3$UpdateSliders DD imagerel $LN21@UpdateSlid+313
	DD	imagerel $LN21@UpdateSlid+318
	DD	imagerel $chain$3$UpdateSliders
pdata	ENDS
;	COMDAT pdata
pdata	SEGMENT
$pdata$UpdateEntities DD imagerel $LN665@UpdateEnti
	DD	imagerel $LN665@UpdateEnti+5128
	DD	imagerel $unwind$UpdateEntities
pdata	ENDS
;	COMDAT pdata
pdata	SEGMENT
$pdata$UpdateSquishables DD imagerel $LN28@UpdateSqui
	DD	imagerel $LN28@UpdateSqui+35
	DD	imagerel $unwind$UpdateSquishables
pdata	ENDS
;	COMDAT pdata
pdata	SEGMENT
$pdata$1$UpdateSquishables DD imagerel $LN28@UpdateSqui+35
	DD	imagerel $LN28@UpdateSqui+272
	DD	imagerel $chain$1$UpdateSquishables
pdata	ENDS
;	COMDAT pdata
pdata	SEGMENT
$pdata$2$UpdateSquishables DD imagerel $LN28@UpdateSqui+272
	DD	imagerel $LN28@UpdateSqui+274
	DD	imagerel $chain$2$UpdateSquishables
pdata	ENDS
;	COMDAT xdata
xdata	SEGMENT
$chain$2$UpdateSquishables DD 021H
	DD	imagerel $LN28@UpdateSqui
	DD	imagerel $LN28@UpdateSqui+35
	DD	imagerel $unwind$UpdateSquishables
xdata	ENDS
;	COMDAT xdata
xdata	SEGMENT
$chain$1$UpdateSquishables DQ 00003741000041021r ; 4.8025e-309
	DD	026405H
	DD	imagerel $LN28@UpdateSqui
	DD	imagerel $LN28@UpdateSqui+35
	DD	imagerel $unwind$UpdateSquishables
xdata	ENDS
;	COMDAT xdata
xdata	SEGMENT
$unwind$UpdateSquishables DQ 00000300200010201r	; 2.60793e-310
xdata	ENDS
;	COMDAT xdata
xdata	SEGMENT
$unwind$UpdateEntities DQ 00003c842001b5119r	; 5.25988e-309
	DQ	00005a8360004b83cr		; 7.86713e-309
	DQ	00007882c00069831r		; 1.04744e-308
	DQ	00009682300087827r		; 1.30817e-308
	DQ	0001b541f001c641fr		; 3.80051e-308
	DQ	00014011f001a341fr		; 2.78195e-308
	DQ	0c012d014e016f018r		; -4.7032
	DD	07010H
	DD	imagerel __GSHandlerCheck
	DD	028H
xdata	ENDS
;	COMDAT xdata
xdata	SEGMENT
$chain$3$UpdateSliders DD 021H
	DD	imagerel $LN21@UpdateSlid
	DD	imagerel $LN21@UpdateSlid+27
	DD	imagerel $unwind$UpdateSliders
xdata	ENDS
;	COMDAT xdata
xdata	SEGMENT
$chain$2$UpdateSliders DQ 00002881b00061b21r	; 3.52071e-309
	DQ	00004680500037812r		; 6.12775e-309
	DD	imagerel $LN21@UpdateSlid
	DD	imagerel $LN21@UpdateSlid+27
	DD	imagerel $unwind$UpdateSliders
xdata	ENDS
;	COMDAT xdata
xdata	SEGMENT
$unwind$UpdateSliders DQ 00000a20400010401r	; 8.80119e-310
xdata	ENDS
;	COMDAT xdata
xdata	SEGMENT
$unwind$limitedDeltaTime2 DQ 00002981c00071c01r	; 3.60765e-309
	DQ	00004680900038816r		; 6.12784e-309
	DD	0a204H
xdata	ENDS
;	COMDAT xdata
xdata	SEGMENT
$unwind$SortGridCell DQ 00009640f00061e19r	; 1.30596e-308
	DQ	0700b520f0008340fr		; 5.30195e+231
	DD	imagerel __GSHandlerCheck
	DD	028H
END
