; Listing generated by Microsoft (R) Optimizing Compiler Version 19.37.32824.0 

include listing.inc

INCLUDELIB OLDNAMES

PUBLIC	InsertAtMainHead
PUBLIC	IMax
PUBLIC	RemoveSliderNode
PUBLIC	RemoveEntAppropriate
PUBLIC	SubscribeEntity_Without_Scale
PUBLIC	DeleteSlider
PUBLIC	DeleteEntity
PUBLIC	SubscribeSlider
PUBLIC	CreateCollider2
PUBLIC	SubscribeEntity
PUBLIC	DestroyCollider
;	COMDAT pdata
pdata	SEGMENT
$pdata$SubscribeEntity_Without_Scale DD imagerel $LN41@SubscribeE
	DD	imagerel $LN41@SubscribeE+501
	DD	imagerel $unwind$SubscribeEntity_Without_Scale
pdata	ENDS
;	COMDAT pdata
pdata	SEGMENT
$pdata$DeleteSlider DD imagerel $LN13@DeleteSlid
	DD	imagerel $LN13@DeleteSlid+242
	DD	imagerel $unwind$DeleteSlider
pdata	ENDS
;	COMDAT pdata
pdata	SEGMENT
$pdata$DeleteEntity DD imagerel $LN34@DeleteEnti
	DD	imagerel $LN34@DeleteEnti+15
	DD	imagerel $unwind$DeleteEntity
pdata	ENDS
;	COMDAT pdata
pdata	SEGMENT
$pdata$0$DeleteEntity DD imagerel $LN34@DeleteEnti+15
	DD	imagerel $LN34@DeleteEnti+34
	DD	imagerel $chain$0$DeleteEntity
pdata	ENDS
;	COMDAT pdata
pdata	SEGMENT
$pdata$1$DeleteEntity DD imagerel $LN34@DeleteEnti+34
	DD	imagerel $LN34@DeleteEnti+92
	DD	imagerel $chain$1$DeleteEntity
pdata	ENDS
;	COMDAT pdata
pdata	SEGMENT
$pdata$2$DeleteEntity DD imagerel $LN34@DeleteEnti+92
	DD	imagerel $LN34@DeleteEnti+151
	DD	imagerel $chain$2$DeleteEntity
pdata	ENDS
;	COMDAT pdata
pdata	SEGMENT
$pdata$3$DeleteEntity DD imagerel $LN34@DeleteEnti+151
	DD	imagerel $LN34@DeleteEnti+303
	DD	imagerel $chain$3$DeleteEntity
pdata	ENDS
;	COMDAT pdata
pdata	SEGMENT
$pdata$SubscribeSlider DD imagerel $LN7@SubscribeS
	DD	imagerel $LN7@SubscribeS+106
	DD	imagerel $unwind$SubscribeSlider
pdata	ENDS
;	COMDAT pdata
pdata	SEGMENT
$pdata$CreateCollider2 DD imagerel $LN8@CreateColl
	DD	imagerel $LN8@CreateColl+132
	DD	imagerel $unwind$CreateCollider2
pdata	ENDS
;	COMDAT pdata
pdata	SEGMENT
$pdata$SubscribeEntity DD imagerel $LN40@SubscribeE
	DD	imagerel $LN40@SubscribeE+529
	DD	imagerel $unwind$SubscribeEntity
pdata	ENDS
;	COMDAT pdata
pdata	SEGMENT
$pdata$DestroyCollider DD imagerel $LN23@DestroyCol
	DD	imagerel $LN23@DestroyCol+199
	DD	imagerel $unwind$DestroyCollider
;	COMDAT xdata
xdata	SEGMENT
$unwind$DestroyCollider DQ 03002320600020601r	; 1.96423e-77
xdata	ENDS
;	COMDAT xdata
xdata	SEGMENT
$unwind$SubscribeEntity DQ 00002781c00081c01r	; 3.43381e-309
	DQ	0000a340a00036812r		; 1.41894e-308
	DD	07006720aH
xdata	ENDS
;	COMDAT xdata
xdata	SEGMENT
$unwind$CreateCollider2 DQ 00000420400010401r	; 3.58617e-310
xdata	ENDS
;	COMDAT xdata
xdata	SEGMENT
$unwind$SubscribeSlider DQ 03002320600020601r	; 1.96423e-77
xdata	ENDS
;	COMDAT xdata
xdata	SEGMENT
$chain$3$DeleteEntity DD 021H
	DD	imagerel $LN34@DeleteEnti
	DD	imagerel $LN34@DeleteEnti+15
	DD	imagerel $unwind$DeleteEntity
xdata	ENDS
;	COMDAT xdata
xdata	SEGMENT
$chain$2$DeleteEntity DD 021H
	DD	imagerel $LN34@DeleteEnti+15
	DD	imagerel $LN34@DeleteEnti+34
	DD	imagerel $chain$0$DeleteEntity
xdata	ENDS
;	COMDAT xdata
xdata	SEGMENT
$chain$1$DeleteEntity DQ 00006340500020521r	; 8.62661e-309
	DD	imagerel $LN34@DeleteEnti+15
	DD	imagerel $LN34@DeleteEnti+34
	DD	imagerel $chain$0$DeleteEntity
xdata	ENDS
;	COMDAT xdata
xdata	SEGMENT
$chain$0$DeleteEntity DQ 00007640500020521r	; 1.0278e-308
	DD	imagerel $LN34@DeleteEnti
	DD	imagerel $LN34@DeleteEnti+15
	DD	imagerel $unwind$DeleteEntity
xdata	ENDS
;	COMDAT xdata
xdata	SEGMENT
$unwind$DeleteEntity DQ 00008540a00040a01r	; 1.15819e-308
	DD	07006320aH
xdata	ENDS
;	COMDAT xdata
xdata	SEGMENT
$unwind$DeleteSlider DQ 00007640f00060f01r	; 1.02782e-308
	DQ	0700b320f0006340fr		; 5.2777e+231
xdata	ENDS
;	COMDAT xdata
xdata	SEGMENT
$unwind$SubscribeEntity_Without_Scale DQ 00006340a00040a01r ; 8.62672e-309
	DD	07006320aH
END
