; Listing generated by Microsoft (R) Optimizing Compiler Version 19.37.32824.0 

include listing.inc

INCLUDELIB OLDNAMES

PUBLIC	??_C@_01KDCPPGHE@r@				; `string'
EXTRN	__imp_strnlen:PROC
EXTRN	__imp_fgets:PROC
_DATA	ENDS
;	COMDAT ??_C@_01KDCPPGHE@r@
CONST	SEGMENT
??_C@_01KDCPPGHE@r@ DB 'r', 00H				; `string'
PUBLIC	ReadSaveFile
;	COMDAT pdata
pdata	SEGMENT
$pdata$ReadSaveFile DD imagerel $LN23@ReadSaveFi
	DD	imagerel $LN23@ReadSaveFi+136
	DD	imagerel $unwind$ReadSaveFile
pdata	ENDS
;	COMDAT pdata
pdata	SEGMENT
$pdata$1$ReadSaveFile DD imagerel $LN23@ReadSaveFi+136
	DD	imagerel $LN23@ReadSaveFi+321
	DD	imagerel $chain$1$ReadSaveFile
pdata	ENDS
;	COMDAT pdata
pdata	SEGMENT
$pdata$2$ReadSaveFile DD imagerel $LN23@ReadSaveFi+321
	DD	imagerel $LN23@ReadSaveFi+373
	DD	imagerel $chain$2$ReadSaveFile
;	COMDAT xdata
xdata	SEGMENT
$chain$2$ReadSaveFile DD 021H
	DD	imagerel $LN23@ReadSaveFi
	DD	imagerel $LN23@ReadSaveFi+136
	DD	imagerel $unwind$ReadSaveFile
xdata	ENDS
;	COMDAT xdata
xdata	SEGMENT
$chain$1$ReadSaveFile DQ 00009e40a00040a21r	; 1.37548e-308
	DD	086405H
	DD	imagerel $LN23@ReadSaveFi
	DD	imagerel $LN23@ReadSaveFi+136
	DD	imagerel $unwind$ReadSaveFile
xdata	ENDS
;	COMDAT xdata
xdata	SEGMENT
$unwind$ReadSaveFile DQ 0000b540f00061e19r	; 1.5754e-308
	DQ	0700b520f000a340fr		; 5.30195e+231
	DD	imagerel __GSHandlerCheck
	DD	028H
END
