; Listing generated by Microsoft (R) Optimizing Compiler Version 19.37.32824.0 

include listing.inc

INCLUDELIB OLDNAMES

PUBLIC	upVector
PUBLIC	x_int_tolerance_y
	ORG $+4
upVector DD	000000000r			; 0
	DD	03f800000r			; 1
x_int_tolerance_y DD 03d8f5c29r			; 0.07
PUBLIC	AABBsOverlap
PUBLIC	IsX
PUBLIC	TakePlrDmg
PUBLIC	FMin
PUBLIC	FMax
PUBLIC	FAbs
PUBLIC	IsLayer
PUBLIC	NormalDot
PUBLIC	DotProduct
PUBLIC	NormalizeVector
PUBLIC	NormalizedVector
PUBLIC	VectorDivByScalar
PUBLIC	Magnitude
PUBLIC	VectorMultAssign
PUBLIC	VectorMult
PUBLIC	FromToVector
PUBLIC	VectorByScalar
PUBLIC	TakeVectorsAssign
PUBLIC	AddVectorsAssign
PUBLIC	TakeVectors
PUBLIC	AddVectors
;	COMDAT pdata
pdata	SEGMENT
$pdata$AABBsOverlap DD imagerel $LN204@AABBsOverl
	DD	imagerel $LN204@AABBsOverl+175
	DD	imagerel $unwind$AABBsOverlap
pdata	ENDS
;	COMDAT pdata
pdata	SEGMENT
$pdata$0$AABBsOverlap DD imagerel $LN204@AABBsOverl+175
	DD	imagerel $LN204@AABBsOverl+183
	DD	imagerel $chain$0$AABBsOverlap
pdata	ENDS
;	COMDAT pdata
pdata	SEGMENT
$pdata$5$AABBsOverlap DD imagerel $LN204@AABBsOverl+183
	DD	imagerel $LN204@AABBsOverl+239
	DD	imagerel $chain$5$AABBsOverlap
pdata	ENDS
;	COMDAT pdata
pdata	SEGMENT
$pdata$7$AABBsOverlap DD imagerel $LN204@AABBsOverl+239
	DD	imagerel $LN204@AABBsOverl+349
	DD	imagerel $chain$7$AABBsOverlap
pdata	ENDS
;	COMDAT pdata
pdata	SEGMENT
$pdata$10$AABBsOverlap DD imagerel $LN204@AABBsOverl+349
	DD	imagerel $LN204@AABBsOverl+1434
	DD	imagerel $chain$10$AABBsOverlap
pdata	ENDS
;	COMDAT pdata
pdata	SEGMENT
$pdata$11$AABBsOverlap DD imagerel $LN204@AABBsOverl+1434
	DD	imagerel $LN204@AABBsOverl+1629
	DD	imagerel $chain$11$AABBsOverlap
pdata	ENDS
;	COMDAT pdata
pdata	SEGMENT
$pdata$12$AABBsOverlap DD imagerel $LN204@AABBsOverl+1629
	DD	imagerel $LN204@AABBsOverl+1976
	DD	imagerel $chain$12$AABBsOverlap
pdata	ENDS
;	COMDAT pdata
pdata	SEGMENT
$pdata$13$AABBsOverlap DD imagerel $LN204@AABBsOverl+1976
	DD	imagerel $LN204@AABBsOverl+2265
	DD	imagerel $chain$13$AABBsOverlap
pdata	ENDS
;	COMDAT pdata
pdata	SEGMENT
$pdata$14$AABBsOverlap DD imagerel $LN204@AABBsOverl+2265
	DD	imagerel $LN204@AABBsOverl+2303
	DD	imagerel $chain$14$AABBsOverlap
pdata	ENDS
;	COMDAT pdata
pdata	SEGMENT
$pdata$15$AABBsOverlap DD imagerel $LN204@AABBsOverl+2303
	DD	imagerel $LN204@AABBsOverl+2310
	DD	imagerel $chain$15$AABBsOverlap
pdata	ENDS
;	COMDAT pdata
pdata	SEGMENT
$pdata$16$AABBsOverlap DD imagerel $LN204@AABBsOverl+2310
	DD	imagerel $LN204@AABBsOverl+2317
	DD	imagerel $chain$16$AABBsOverlap
pdata	ENDS
;	COMDAT pdata
pdata	SEGMENT
$pdata$NormalDot DD imagerel $LN10@NormalDot
	DD	imagerel $LN10@NormalDot+77
	DD	imagerel $unwind$NormalDot
pdata	ENDS
;	COMDAT pdata
pdata	SEGMENT
$pdata$NormalizeVector DD imagerel $LN17@NormalizeV
	DD	imagerel $LN17@NormalizeV+146
	DD	imagerel $unwind$NormalizeVector
pdata	ENDS
;	COMDAT pdata
pdata	SEGMENT
$pdata$NormalizedVector DD imagerel $LN15@Normalized
	DD	imagerel $LN15@Normalized+140
	DD	imagerel $unwind$NormalizedVector
;	COMDAT xdata
xdata	SEGMENT
$unwind$NormalizedVector DQ 00002781c00051c01r	; 3.43381e-309
	DQ	00000820400036809r		; 7.06285e-310
xdata	ENDS
;	COMDAT xdata
xdata	SEGMENT
$unwind$NormalizeVector DQ 00002782400062401r	; 3.43398e-309
	DQ	03002720600036818r		; 1.99122e-77
xdata	ENDS
;	COMDAT xdata
xdata	SEGMENT
$unwind$NormalDot DQ 00003680900030901r		; 4.73716e-309
	DD	08204H
xdata	ENDS
;	COMDAT xdata
xdata	SEGMENT
$chain$16$AABBsOverlap DQ 0001ce40000080021r	; 4.01774e-308
	DQ	000247400001dc400r		; 5.68871e-308
	DD	0223400H
	DD	imagerel $LN204@AABBsOverl
	DD	imagerel $LN204@AABBsOverl+175
	DD	imagerel $unwind$AABBsOverlap
xdata	ENDS
;	COMDAT xdata
xdata	SEGMENT
$chain$15$AABBsOverlap DQ 0000c7800000c0021r	; 1.73399e-308
	DQ	0001dc400001ce400r		; 4.13942e-308
	DQ	00023640000247400r		; 5.3932e-308
	DD	0223400H
	DD	imagerel $LN204@AABBsOverl
	DD	imagerel $LN204@AABBsOverl+175
	DD	imagerel $unwind$AABBsOverlap
xdata	ENDS
;	COMDAT xdata
xdata	SEGMENT
$chain$14$AABBsOverlap DD 021H
	DD	imagerel $LN204@AABBsOverl
	DD	imagerel $LN204@AABBsOverl+175
	DD	imagerel $unwind$AABBsOverlap
xdata	ENDS
;	COMDAT xdata
xdata	SEGMENT
$chain$13$AABBsOverlap DQ 0001ce40000060021r	; 4.01774e-308
	DQ	000247400001dc400r		; 5.68871e-308
	DD	imagerel $LN204@AABBsOverl+175
	DD	imagerel $LN204@AABBsOverl+183
	DD	imagerel $chain$0$AABBsOverlap
xdata	ENDS
;	COMDAT xdata
xdata	SEGMENT
$chain$12$AABBsOverlap DD 021H
	DD	imagerel $LN204@AABBsOverl+183
	DD	imagerel $LN204@AABBsOverl+239
	DD	imagerel $chain$5$AABBsOverlap
xdata	ENDS
;	COMDAT xdata
xdata	SEGMENT
$chain$11$AABBsOverlap DD 021H
	DD	imagerel $LN204@AABBsOverl+239
	DD	imagerel $LN204@AABBsOverl+349
	DD	imagerel $chain$7$AABBsOverlap
xdata	ENDS
;	COMDAT xdata
xdata	SEGMENT
$chain$10$AABBsOverlap DQ 00004f82400062421r	; 6.91066e-309
	DQ	0000b88090005e81ar		; 1.60364e-308
	DD	imagerel $LN204@AABBsOverl+239
	DD	imagerel $LN204@AABBsOverl+349
	DD	imagerel $chain$7$AABBsOverlap
xdata	ENDS
;	COMDAT xdata
xdata	SEGMENT
$chain$7$AABBsOverlap DQ 00008b81200041221r	; 1.21253e-308
	DD	09a809H
	DD	imagerel $LN204@AABBsOverl+183
	DD	imagerel $LN204@AABBsOverl+239
	DD	imagerel $chain$5$AABBsOverlap
xdata	ENDS
;	COMDAT xdata
xdata	SEGMENT
$chain$5$AABBsOverlap DQ 0000c7835000a3521r	; 1.73411e-308
	DQ	0001dc422001ce42ar		; 4.13949e-308
	DQ	00023640800247418r		; 5.39323e-308
	DD	imagerel $LN204@AABBsOverl+175
	DD	imagerel $LN204@AABBsOverl+183
	DD	imagerel $chain$0$AABBsOverlap
xdata	ENDS
;	COMDAT xdata
xdata	SEGMENT
$chain$0$AABBsOverlap DQ 00022340800020821r	; 5.06295e-308
	DD	imagerel $LN204@AABBsOverl
	DD	imagerel $LN204@AABBsOverl+175
	DD	imagerel $unwind$AABBsOverlap
xdata	ENDS
;	COMDAT xdata
xdata	SEGMENT
$unwind$AABBsOverlap DQ 00006d843000d4301r	; 9.51883e-309
	DQ	0000a98310007c837r		; 1.47335e-308
	DQ	0001e010f000d6824r		; 4.17259e-308
	DQ	000005004d006f008r		; 4.34687e-310
END
