; Listing generated by Microsoft (R) Optimizing Compiler Version 19.37.32824.0 

include listing.inc

INCLUDELIB OLDNAMES

PUBLIC	positionTemplate
PUBLIC	quadTemplate
PUBLIC	indiciesTemplate
PUBLIC	textureIDs
PUBLIC	??_C@_0M@CPJNCKHG@version?5?$CFs?6@		; `string'
PUBLIC	??_C@_0N@CHKJAACA@Basic?4shader@		; `string'
PUBLIC	??_C@_0M@KCEEINPE@vertex?3?6?$CFs?6@		; `string'
PUBLIC	??_C@_0O@IECILAIG@framgent?3?6?$CFs?6@		; `string'
PUBLIC	??_C@_07BGCMGBLA@u_Color@			; `string'
PUBLIC	??_C@_0L@MHMCDAGK@u_elapsedT@			; `string'
PUBLIC	??_C@_09FBCBHDFN@u_Texture@			; `string'
PUBLIC	??_C@_0M@FOABEBJH@u_cameraPos@			; `string'
PUBLIC	atlasIndexBuffer
PUBLIC	atlasTexCoords
EXTRN	__imp___glewUniform4f:QWORD
EXTRN	__imp_glGetString:PROC
EXTRN	__imp___glewGenBuffers:QWORD
EXTRN	__imp___glewUniform1f:QWORD
EXTRN	__imp___glewUniform1iv:QWORD
EXTRN	__imp___glewBindBuffer:QWORD
EXTRN	__imp___glewVertexAttribPointer:QWORD
EXTRN	__imp___glewUseProgram:QWORD
EXTRN	__imp___glewEnableVertexAttribArray:QWORD
;	COMDAT ??_C@_0M@FOABEBJH@u_cameraPos@
CONST	SEGMENT
??_C@_0M@FOABEBJH@u_cameraPos@ DB 'u_cameraPos', 00H	; `string'
CONST	ENDS
;	COMDAT ??_C@_09FBCBHDFN@u_Texture@
CONST	SEGMENT
??_C@_09FBCBHDFN@u_Texture@ DB 'u_Texture', 00H		; `string'
CONST	ENDS
;	COMDAT ??_C@_0L@MHMCDAGK@u_elapsedT@
CONST	SEGMENT
??_C@_0L@MHMCDAGK@u_elapsedT@ DB 'u_elapsedT', 00H	; `string'
CONST	ENDS
;	COMDAT ??_C@_07BGCMGBLA@u_Color@
CONST	SEGMENT
??_C@_07BGCMGBLA@u_Color@ DB 'u_Color', 00H		; `string'
CONST	ENDS
;	COMDAT ??_C@_0O@IECILAIG@framgent?3?6?$CFs?6@
CONST	SEGMENT
??_C@_0O@IECILAIG@framgent?3?6?$CFs?6@ DB 'framgent:', 0aH, '%s', 0aH, 00H ; `string'
CONST	ENDS
;	COMDAT ??_C@_0M@KCEEINPE@vertex?3?6?$CFs?6@
CONST	SEGMENT
??_C@_0M@KCEEINPE@vertex?3?6?$CFs?6@ DB 'vertex:', 0aH, '%s', 0aH, 00H ; `string'
CONST	ENDS
;	COMDAT ??_C@_0N@CHKJAACA@Basic?4shader@
CONST	SEGMENT
??_C@_0N@CHKJAACA@Basic?4shader@ DB 'Basic.shader', 00H	; `string'
CONST	ENDS
;	COMDAT ??_C@_0M@CPJNCKHG@version?5?$CFs?6@
CONST	SEGMENT
??_C@_0M@CPJNCKHG@version?5?$CFs?6@ DB 'version %s', 0aH, 00H ; `string'
	ORG $+7
textureIDs DD	00H
	DD	01H
	DD	02H
	DD	03H
	DD	04H
	DD	05H
	DD	06H
	DD	07H
	DD	08H
	DD	09H
	DD	0aH
	DD	0bH
	DD	0cH
	DD	0dH
	DD	0eH
	DD	0fH
	DD	010H
	DD	011H
	DD	012H
	DD	013H
	DD	014H
	DD	015H
	DD	016H
	DD	017H
	DD	018H
	DD	019H
	DD	01aH
	DD	01bH
	DD	01cH
	DD	01dH
	DD	01eH
	DD	01fH
	ORG $+4
positionTemplate DD 0be855556r			; -0.260417
	DD	0beed097dr			; -0.462963
	DD	03e855556r			; 0.260417
	DD	0beed097dr			; -0.462963
	DD	03e855556r			; 0.260417
	DD	03eed097dr			; 0.462963
	DD	0be855556r			; -0.260417
	DD	03eed097dr			; 0.462963
quadTemplate DD	0be855556r			; -0.260417
	DD	0beed097dr			; -0.462963
	DD	000000000r			; 0
	DD	000000000r			; 0
	DD	03f800000r			; 1
	DD	03f800000r			; 1
	DD	03f800000r			; 1
	DD	03f800000r			; 1
	DD	000000000r			; 0
	DD	03e855556r			; 0.260417
	DD	0beed097dr			; -0.462963
	DD	03f800000r			; 1
	DD	000000000r			; 0
	DD	03f800000r			; 1
	DD	03f800000r			; 1
	DD	03f800000r			; 1
	DD	03f800000r			; 1
	DD	000000000r			; 0
	DD	03e855556r			; 0.260417
	DD	03eed097dr			; 0.462963
	DD	03f800000r			; 1
	DD	03f800000r			; 1
	DD	03f800000r			; 1
	DD	03f800000r			; 1
	DD	03f800000r			; 1
	DD	03f800000r			; 1
	DD	000000000r			; 0
	DD	0be855556r			; -0.260417
	DD	03eed097dr			; 0.462963
	DD	000000000r			; 0
	DD	03f800000r			; 1
	DD	03f800000r			; 1
	DD	03f800000r			; 1
	DD	03f800000r			; 1
	DD	03f800000r			; 1
	DD	000000000r			; 0
indiciesTemplate DD 00H
	DD	01H
	DD	02H
	DD	02H
	DD	03H
	DD	00H
atlasIndexBuffer DB 00H
	DB	01H
	DB	01H
	DB	00H
	DB	02H
	DB	02H
	DB	03H
	DB	03H
atlasTexCoords DB 00H
	ORG $+1
	DW	00H
	DB	00H
	ORG $+1
	DW	01H
	DB	01H
	ORG $+1
	DW	00H
	DB	01H
	ORG $+1
	DW	01H
PUBLIC	ChangeTexCoordTo
PUBLIC	ScaleMeshY
PUBLIC	ScaleMeshX
PUBLIC	ScaleMesh
PUBLIC	MoveMeshTo
PUBLIC	MoveScaleMesh
PUBLIC	MoveMeshY
PUBLIC	MoveMeshX
PUBLIC	MoveScaleMeshY
PUBLIC	MoveScaleMeshX
PUBLIC	DefaultAtlasMesh
PUBLIC	vecIndex
PUBLIC	SquishMeshX
PUBLIC	SquishMeshX2
PUBLIC	defaultSMesh
PUBLIC	ChangeTexInd2
PUBLIC	defaultMesh
PUBLIC	GetOrigVertex
PUBLIC	DeleteSQuad
PUBLIC	DeleteQuad
PUBLIC	CreateSQuadAssign
PUBLIC	CreateQuadAssign
PUBLIC	CreateQuad
PUBLIC	I_InRange
PUBLIC	MeshInitialize
PUBLIC	MeshStartup
;	COMDAT pdata
pdata	SEGMENT
$pdata$ChangeTexCoordTo DD imagerel $LN18@ChangeTexC
	DD	imagerel $LN18@ChangeTexC+50
	DD	imagerel $unwind$ChangeTexCoordTo
pdata	ENDS
;	COMDAT pdata
pdata	SEGMENT
$pdata$4$ChangeTexCoordTo DD imagerel $LN18@ChangeTexC+50
	DD	imagerel $LN18@ChangeTexC+256
	DD	imagerel $chain$4$ChangeTexCoordTo
pdata	ENDS
;	COMDAT pdata
pdata	SEGMENT
$pdata$5$ChangeTexCoordTo DD imagerel $LN18@ChangeTexC+256
	DD	imagerel $LN18@ChangeTexC+265
	DD	imagerel $chain$5$ChangeTexCoordTo
pdata	ENDS
;	COMDAT pdata
pdata	SEGMENT
$pdata$ScaleMeshY DD imagerel $LN12@ScaleMeshY
	DD	imagerel $LN12@ScaleMeshY+38
	DD	imagerel $unwind$ScaleMeshY
pdata	ENDS
;	COMDAT pdata
pdata	SEGMENT
$pdata$1$ScaleMeshY DD imagerel $LN12@ScaleMeshY+38
	DD	imagerel $LN12@ScaleMeshY+109
	DD	imagerel $chain$1$ScaleMeshY
pdata	ENDS
;	COMDAT pdata
pdata	SEGMENT
$pdata$2$ScaleMeshY DD imagerel $LN12@ScaleMeshY+109
	DD	imagerel $LN12@ScaleMeshY+114
	DD	imagerel $chain$2$ScaleMeshY
pdata	ENDS
;	COMDAT pdata
pdata	SEGMENT
$pdata$ScaleMeshX DD imagerel $LN12@ScaleMeshX
	DD	imagerel $LN12@ScaleMeshX+34
	DD	imagerel $unwind$ScaleMeshX
pdata	ENDS
;	COMDAT pdata
pdata	SEGMENT
$pdata$1$ScaleMeshX DD imagerel $LN12@ScaleMeshX+34
	DD	imagerel $LN12@ScaleMeshX+109
	DD	imagerel $chain$1$ScaleMeshX
pdata	ENDS
;	COMDAT pdata
pdata	SEGMENT
$pdata$2$ScaleMeshX DD imagerel $LN12@ScaleMeshX+109
	DD	imagerel $LN12@ScaleMeshX+114
	DD	imagerel $chain$2$ScaleMeshX
pdata	ENDS
;	COMDAT pdata
pdata	SEGMENT
$pdata$ScaleMesh DD imagerel $LN12@ScaleMesh
	DD	imagerel $LN12@ScaleMesh+38
	DD	imagerel $unwind$ScaleMesh
pdata	ENDS
;	COMDAT pdata
pdata	SEGMENT
$pdata$4$ScaleMesh DD imagerel $LN12@ScaleMesh+38
	DD	imagerel $LN12@ScaleMesh+229
	DD	imagerel $chain$4$ScaleMesh
pdata	ENDS
;	COMDAT pdata
pdata	SEGMENT
$pdata$5$ScaleMesh DD imagerel $LN12@ScaleMesh+229
	DD	imagerel $LN12@ScaleMesh+235
	DD	imagerel $chain$5$ScaleMesh
pdata	ENDS
;	COMDAT pdata
pdata	SEGMENT
$pdata$MoveMeshTo DD imagerel $LN16@MoveMeshTo
	DD	imagerel $LN16@MoveMeshTo+50
	DD	imagerel $unwind$MoveMeshTo
pdata	ENDS
;	COMDAT pdata
pdata	SEGMENT
$pdata$7$MoveMeshTo DD imagerel $LN16@MoveMeshTo+50
	DD	imagerel $LN16@MoveMeshTo+348
	DD	imagerel $chain$7$MoveMeshTo
pdata	ENDS
;	COMDAT pdata
pdata	SEGMENT
$pdata$8$MoveMeshTo DD imagerel $LN16@MoveMeshTo+348
	DD	imagerel $LN16@MoveMeshTo+356
	DD	imagerel $chain$8$MoveMeshTo
pdata	ENDS
;	COMDAT pdata
pdata	SEGMENT
$pdata$MoveScaleMesh DD imagerel $LN16@MoveScaleM
	DD	imagerel $LN16@MoveScaleM+62
	DD	imagerel $unwind$MoveScaleMesh
pdata	ENDS
;	COMDAT pdata
pdata	SEGMENT
$pdata$10$MoveScaleMesh DD imagerel $LN16@MoveScaleM+62
	DD	imagerel $LN16@MoveScaleM+436
	DD	imagerel $chain$10$MoveScaleMesh
pdata	ENDS
;	COMDAT pdata
pdata	SEGMENT
$pdata$11$MoveScaleMesh DD imagerel $LN16@MoveScaleM+436
	DD	imagerel $LN16@MoveScaleM+449
	DD	imagerel $chain$11$MoveScaleMesh
pdata	ENDS
;	COMDAT pdata
pdata	SEGMENT
$pdata$MoveMeshY DD imagerel $LN14@MoveMeshY
	DD	imagerel $LN14@MoveMeshY+40
	DD	imagerel $unwind$MoveMeshY
pdata	ENDS
;	COMDAT pdata
pdata	SEGMENT
$pdata$3$MoveMeshY DD imagerel $LN14@MoveMeshY+40
	DD	imagerel $LN14@MoveMeshY+154
	DD	imagerel $chain$3$MoveMeshY
pdata	ENDS
;	COMDAT pdata
pdata	SEGMENT
$pdata$4$MoveMeshY DD imagerel $LN14@MoveMeshY+154
	DD	imagerel $LN14@MoveMeshY+159
	DD	imagerel $chain$4$MoveMeshY
pdata	ENDS
;	COMDAT pdata
pdata	SEGMENT
$pdata$MoveMeshX DD imagerel $LN14@MoveMeshX
	DD	imagerel $LN14@MoveMeshX+37
	DD	imagerel $unwind$MoveMeshX
pdata	ENDS
;	COMDAT pdata
pdata	SEGMENT
$pdata$3$MoveMeshX DD imagerel $LN14@MoveMeshX+37
	DD	imagerel $LN14@MoveMeshX+153
	DD	imagerel $chain$3$MoveMeshX
pdata	ENDS
;	COMDAT pdata
pdata	SEGMENT
$pdata$4$MoveMeshX DD imagerel $LN14@MoveMeshX+153
	DD	imagerel $LN14@MoveMeshX+158
	DD	imagerel $chain$4$MoveMeshX
pdata	ENDS
;	COMDAT pdata
pdata	SEGMENT
$pdata$MoveScaleMeshY DD imagerel $LN14@MoveScaleM
	DD	imagerel $LN14@MoveScaleM+44
	DD	imagerel $unwind$MoveScaleMeshY
pdata	ENDS
;	COMDAT pdata
pdata	SEGMENT
$pdata$3$MoveScaleMeshY DD imagerel $LN14@MoveScaleM+44
	DD	imagerel $LN14@MoveScaleM+173
	DD	imagerel $chain$3$MoveScaleMeshY
pdata	ENDS
;	COMDAT pdata
pdata	SEGMENT
$pdata$4$MoveScaleMeshY DD imagerel $LN14@MoveScaleM+173
	DD	imagerel $LN14@MoveScaleM+178
	DD	imagerel $chain$4$MoveScaleMeshY
pdata	ENDS
;	COMDAT pdata
pdata	SEGMENT
$pdata$MoveScaleMeshX DD imagerel $LN14@MoveScaleM
	DD	imagerel $LN14@MoveScaleM+41
	DD	imagerel $unwind$MoveScaleMeshX
pdata	ENDS
;	COMDAT pdata
pdata	SEGMENT
$pdata$3$MoveScaleMeshX DD imagerel $LN14@MoveScaleM+41
	DD	imagerel $LN14@MoveScaleM+159
	DD	imagerel $chain$3$MoveScaleMeshX
pdata	ENDS
;	COMDAT pdata
pdata	SEGMENT
$pdata$4$MoveScaleMeshX DD imagerel $LN14@MoveScaleM+159
	DD	imagerel $LN14@MoveScaleM+164
	DD	imagerel $chain$4$MoveScaleMeshX
pdata	ENDS
;	COMDAT pdata
pdata	SEGMENT
$pdata$DefaultAtlasMesh DD imagerel $LN67@DefaultAtl
	DD	imagerel $LN67@DefaultAtl+27
	DD	imagerel $unwind$DefaultAtlasMesh
pdata	ENDS
;	COMDAT pdata
pdata	SEGMENT
$pdata$5$DefaultAtlasMesh DD imagerel $LN67@DefaultAtl+27
	DD	imagerel $LN67@DefaultAtl+1317
	DD	imagerel $chain$5$DefaultAtlasMesh
pdata	ENDS
;	COMDAT pdata
pdata	SEGMENT
$pdata$6$DefaultAtlasMesh DD imagerel $LN67@DefaultAtl+1317
	DD	imagerel $LN67@DefaultAtl+1394
	DD	imagerel $chain$6$DefaultAtlasMesh
pdata	ENDS
;	COMDAT pdata
pdata	SEGMENT
$pdata$SquishMeshX DD imagerel $LN16@SquishMesh
	DD	imagerel $LN16@SquishMesh+54
	DD	imagerel $unwind$SquishMeshX
pdata	ENDS
;	COMDAT pdata
pdata	SEGMENT
$pdata$0$SquishMeshX DD imagerel $LN16@SquishMesh+54
	DD	imagerel $LN16@SquishMesh+190
	DD	imagerel $chain$0$SquishMeshX
pdata	ENDS
;	COMDAT pdata
pdata	SEGMENT
$pdata$1$SquishMeshX DD imagerel $LN16@SquishMesh+190
	DD	imagerel $LN16@SquishMesh+195
	DD	imagerel $chain$1$SquishMeshX
pdata	ENDS
;	COMDAT pdata
pdata	SEGMENT
$pdata$SquishMeshX2 DD imagerel $LN16@SquishMesh
	DD	imagerel $LN16@SquishMesh+57
	DD	imagerel $unwind$SquishMeshX2
pdata	ENDS
;	COMDAT pdata
pdata	SEGMENT
$pdata$0$SquishMeshX2 DD imagerel $LN16@SquishMesh+57
	DD	imagerel $LN16@SquishMesh+197
	DD	imagerel $chain$0$SquishMeshX2
pdata	ENDS
;	COMDAT pdata
pdata	SEGMENT
$pdata$1$SquishMeshX2 DD imagerel $LN16@SquishMesh+197
	DD	imagerel $LN16@SquishMesh+202
	DD	imagerel $chain$1$SquishMeshX2
pdata	ENDS
;	COMDAT pdata
pdata	SEGMENT
$pdata$defaultSMesh DD imagerel $LN46@defaultSMe
	DD	imagerel $LN46@defaultSMe+23
	DD	imagerel $unwind$defaultSMesh
pdata	ENDS
;	COMDAT pdata
pdata	SEGMENT
$pdata$1$defaultSMesh DD imagerel $LN46@defaultSMe+23
	DD	imagerel $LN46@defaultSMe+60
	DD	imagerel $chain$1$defaultSMesh
pdata	ENDS
;	COMDAT pdata
pdata	SEGMENT
$pdata$3$defaultSMesh DD imagerel $LN46@defaultSMe+60
	DD	imagerel $LN46@defaultSMe+263
	DD	imagerel $chain$3$defaultSMesh
pdata	ENDS
;	COMDAT pdata
pdata	SEGMENT
$pdata$4$defaultSMesh DD imagerel $LN46@defaultSMe+263
	DD	imagerel $LN46@defaultSMe+366
	DD	imagerel $chain$4$defaultSMesh
pdata	ENDS
;	COMDAT pdata
pdata	SEGMENT
$pdata$5$defaultSMesh DD imagerel $LN46@defaultSMe+366
	DD	imagerel $LN46@defaultSMe+433
	DD	imagerel $chain$5$defaultSMesh
pdata	ENDS
;	COMDAT pdata
pdata	SEGMENT
$pdata$defaultMesh DD imagerel $LN46@defaultMes
	DD	imagerel $LN46@defaultMes+14
	DD	imagerel $unwind$defaultMesh
pdata	ENDS
;	COMDAT pdata
pdata	SEGMENT
$pdata$2$defaultMesh DD imagerel $LN46@defaultMes+14
	DD	imagerel $LN46@defaultMes+65
	DD	imagerel $chain$2$defaultMesh
pdata	ENDS
;	COMDAT pdata
pdata	SEGMENT
$pdata$3$defaultMesh DD imagerel $LN46@defaultMes+65
	DD	imagerel $LN46@defaultMes+258
	DD	imagerel $chain$3$defaultMesh
pdata	ENDS
;	COMDAT pdata
pdata	SEGMENT
$pdata$4$defaultMesh DD imagerel $LN46@defaultMes+258
	DD	imagerel $LN46@defaultMes+346
	DD	imagerel $chain$4$defaultMesh
pdata	ENDS
;	COMDAT pdata
pdata	SEGMENT
$pdata$5$defaultMesh DD imagerel $LN46@defaultMes+346
	DD	imagerel $LN46@defaultMes+415
	DD	imagerel $chain$5$defaultMesh
pdata	ENDS
;	COMDAT pdata
pdata	SEGMENT
$pdata$DeleteSQuad DD imagerel $LN4@DeleteSQua
	DD	imagerel $LN4@DeleteSQua+172
	DD	imagerel $unwind$DeleteSQuad
pdata	ENDS
;	COMDAT pdata
pdata	SEGMENT
$pdata$DeleteQuad DD imagerel $LN4@DeleteQuad
	DD	imagerel $LN4@DeleteQuad+172
	DD	imagerel $unwind$DeleteQuad
pdata	ENDS
;	COMDAT pdata
pdata	SEGMENT
$pdata$CreateSQuadAssign DD imagerel $LN5@CreateSQua
	DD	imagerel $LN5@CreateSQua+202
	DD	imagerel $unwind$CreateSQuadAssign
pdata	ENDS
;	COMDAT pdata
pdata	SEGMENT
$pdata$CreateQuadAssign DD imagerel $LN5@CreateQuad
	DD	imagerel $LN5@CreateQuad+202
	DD	imagerel $unwind$CreateQuadAssign
pdata	ENDS
;	COMDAT pdata
pdata	SEGMENT
$pdata$CreateQuad DD imagerel $LN6@CreateQuad
	DD	imagerel $LN6@CreateQuad+219
	DD	imagerel $unwind$CreateQuad
pdata	ENDS
;	COMDAT pdata
pdata	SEGMENT
$pdata$MeshStartup DD imagerel $LN82@MeshStartu
	DD	imagerel $LN82@MeshStartu+1549
	DD	imagerel $unwind$MeshStartup
;	COMDAT xdata
xdata	SEGMENT
$unwind$MeshStartup DQ 0001f741d000b2f19r	; 4.37416e-308
	DQ	0001d541d001e641dr		; 4.07864e-308
	DQ	0001a011d001c341dr		; 3.61635e-308
	DD	0e016H
	DD	imagerel __GSHandlerCheck
	DD	0c0H
xdata	ENDS
;	COMDAT xdata
xdata	SEGMENT
$unwind$CreateQuad DQ 03002320600020601r	; 1.96423e-77
xdata	ENDS
;	COMDAT xdata
xdata	SEGMENT
$unwind$CreateQuadAssign DQ 00000420400010401r	; 3.58617e-310
xdata	ENDS
;	COMDAT xdata
xdata	SEGMENT
$unwind$CreateSQuadAssign DQ 00000420400010401r	; 3.58617e-310
xdata	ENDS
;	COMDAT xdata
xdata	SEGMENT
$unwind$DeleteQuad DQ 00006340a00040a01r	; 8.62672e-309
	DD	07006320aH
xdata	ENDS
;	COMDAT xdata
xdata	SEGMENT
$unwind$DeleteSQuad DQ 00006340a00040a01r	; 8.62672e-309
	DD	07006320aH
xdata	ENDS
;	COMDAT xdata
xdata	SEGMENT
$chain$5$defaultMesh DD 021H
	DD	imagerel $LN46@defaultMes
	DD	imagerel $LN46@defaultMes+14
	DD	imagerel $unwind$defaultMesh
xdata	ENDS
;	COMDAT xdata
xdata	SEGMENT
$chain$4$defaultMesh DD 021H
	DD	imagerel $LN46@defaultMes+14
	DD	imagerel $LN46@defaultMes+65
	DD	imagerel $chain$2$defaultMesh
xdata	ENDS
;	COMDAT xdata
xdata	SEGMENT
$chain$3$defaultMesh DQ 00007f40500020521r	; 1.10603e-308
	DD	imagerel $LN46@defaultMes+14
	DD	imagerel $LN46@defaultMes+65
	DD	imagerel $chain$2$defaultMesh
xdata	ENDS
;	COMDAT xdata
xdata	SEGMENT
$chain$2$defaultMesh DQ 00006e42200062221r	; 9.58331e-309
	DQ	0000454050005c416r		; 6.0191e-309
	DD	imagerel $LN46@defaultMes
	DD	imagerel $LN46@defaultMes+14
	DD	imagerel $unwind$defaultMesh
xdata	ENDS
;	COMDAT xdata
xdata	SEGMENT
$unwind$defaultMesh DQ 06003700400030401r	; 3.25769e+154
	DD	03002H
xdata	ENDS
;	COMDAT xdata
xdata	SEGMENT
$chain$5$defaultSMesh DD 021H
	DD	imagerel $LN46@defaultSMe
	DD	imagerel $LN46@defaultSMe+23
	DD	imagerel $unwind$defaultSMesh
xdata	ENDS
;	COMDAT xdata
xdata	SEGMENT
$chain$4$defaultSMesh DD 021H
	DD	imagerel $LN46@defaultSMe+23
	DD	imagerel $LN46@defaultSMe+60
	DD	imagerel $chain$1$defaultSMesh
xdata	ENDS
;	COMDAT xdata
xdata	SEGMENT
$chain$3$defaultSMesh DQ 00007f40d00040d21r	; 1.10605e-308
	DD	045405H
	DD	imagerel $LN46@defaultSMe+23
	DD	imagerel $LN46@defaultSMe+60
	DD	imagerel $chain$1$defaultSMesh
xdata	ENDS
;	COMDAT xdata
xdata	SEGMENT
$chain$1$defaultSMesh DQ 00006e40d00040d21r	; 9.58287e-309
	DD	05c405H
	DD	imagerel $LN46@defaultSMe
	DD	imagerel $LN46@defaultSMe+23
	DD	imagerel $unwind$defaultSMesh
xdata	ENDS
;	COMDAT xdata
xdata	SEGMENT
$unwind$defaultSMesh DQ 06003700400030401r	; 3.25769e+154
	DD	03002H
xdata	ENDS
;	COMDAT xdata
xdata	SEGMENT
$chain$1$SquishMeshX2 DD 021H
	DD	imagerel $LN16@SquishMesh
	DD	imagerel $LN16@SquishMesh+57
	DD	imagerel $unwind$SquishMeshX2
xdata	ENDS
;	COMDAT xdata
xdata	SEGMENT
$chain$0$SquishMeshX2 DQ 00000340400020421r	; 2.82565e-310
	DD	imagerel $LN16@SquishMesh
	DD	imagerel $LN16@SquishMesh+57
	DD	imagerel $unwind$SquishMeshX2
xdata	ENDS
;	COMDAT xdata
xdata	SEGMENT
$unwind$SquishMeshX2 DQ 00000020400010401r	; 1.09495e-311
xdata	ENDS
;	COMDAT xdata
xdata	SEGMENT
$chain$1$SquishMeshX DD 021H
	DD	imagerel $LN16@SquishMesh
	DD	imagerel $LN16@SquishMesh+54
	DD	imagerel $unwind$SquishMeshX
xdata	ENDS
;	COMDAT xdata
xdata	SEGMENT
$chain$0$SquishMeshX DQ 00000340400020421r	; 2.82565e-310
	DD	imagerel $LN16@SquishMesh
	DD	imagerel $LN16@SquishMesh+54
	DD	imagerel $unwind$SquishMeshX
xdata	ENDS
;	COMDAT xdata
xdata	SEGMENT
$unwind$SquishMeshX DQ 00000020400010401r	; 1.09495e-311
xdata	ENDS
;	COMDAT xdata
xdata	SEGMENT
$chain$6$DefaultAtlasMesh DD 021H
	DD	imagerel $LN67@DefaultAtl
	DD	imagerel $LN67@DefaultAtl+27
	DD	imagerel $unwind$DefaultAtlasMesh
xdata	ENDS
;	COMDAT xdata
xdata	SEGMENT
$chain$5$DefaultAtlasMesh DQ 00000f430000c3021r	; 1.3265e-309
	DQ	00002c41d0001d429r		; 3.84669e-309
	DQ	00007640d00087415r		; 1.02782e-308
	DD	065405H
	DD	imagerel $LN67@DefaultAtl
	DD	imagerel $LN67@DefaultAtl+27
	DD	imagerel $unwind$DefaultAtlasMesh
xdata	ENDS
;	COMDAT xdata
xdata	SEGMENT
$unwind$DefaultAtlasMesh DQ 0e004220800030801r	; -3.37423e+154
	DD	03002H
xdata	ENDS
;	COMDAT xdata
xdata	SEGMENT
$chain$4$MoveScaleMeshX DD 021H
	DD	imagerel $LN14@MoveScaleM
	DD	imagerel $LN14@MoveScaleM+41
	DD	imagerel $unwind$MoveScaleMeshX
xdata	ENDS
;	COMDAT xdata
xdata	SEGMENT
$chain$3$MoveScaleMeshX DQ 00000742500082521r	; 6.30933e-310
	DQ	00003540c00046413r		; 4.62858e-309
	DD	023405H
	DD	imagerel $LN14@MoveScaleM
	DD	imagerel $LN14@MoveScaleM+41
	DD	imagerel $unwind$MoveScaleMeshX
xdata	ENDS
;	COMDAT xdata
xdata	SEGMENT
$unwind$MoveScaleMeshX DQ 00000020400010401r	; 1.09495e-311
xdata	ENDS
;	COMDAT xdata
xdata	SEGMENT
$chain$4$MoveScaleMeshY DD 021H
	DD	imagerel $LN14@MoveScaleM
	DD	imagerel $LN14@MoveScaleM+44
	DD	imagerel $unwind$MoveScaleMeshY
xdata	ENDS
;	COMDAT xdata
xdata	SEGMENT
$chain$3$MoveScaleMeshY DQ 00000742500082521r	; 6.30933e-310
	DQ	00003540c00046413r		; 4.62858e-309
	DD	023405H
	DD	imagerel $LN14@MoveScaleM
	DD	imagerel $LN14@MoveScaleM+44
	DD	imagerel $unwind$MoveScaleMeshY
xdata	ENDS
;	COMDAT xdata
xdata	SEGMENT
$unwind$MoveScaleMeshY DQ 00000020400010401r	; 1.09495e-311
xdata	ENDS
;	COMDAT xdata
xdata	SEGMENT
$chain$4$MoveMeshX DD 021H
	DD	imagerel $LN14@MoveMeshX
	DD	imagerel $LN14@MoveMeshX+37
	DD	imagerel $unwind$MoveMeshX
xdata	ENDS
;	COMDAT xdata
xdata	SEGMENT
$chain$3$MoveMeshX DQ 00000742500082521r	; 6.30933e-310
	DQ	00003540c00046413r		; 4.62858e-309
	DD	023405H
	DD	imagerel $LN14@MoveMeshX
	DD	imagerel $LN14@MoveMeshX+37
	DD	imagerel $unwind$MoveMeshX
xdata	ENDS
;	COMDAT xdata
xdata	SEGMENT
$unwind$MoveMeshX DQ 00000020400010401r		; 1.09495e-311
xdata	ENDS
;	COMDAT xdata
xdata	SEGMENT
$chain$4$MoveMeshY DD 021H
	DD	imagerel $LN14@MoveMeshY
	DD	imagerel $LN14@MoveMeshY+40
	DD	imagerel $unwind$MoveMeshY
xdata	ENDS
;	COMDAT xdata
xdata	SEGMENT
$chain$3$MoveMeshY DQ 00000742500082521r	; 6.30933e-310
	DQ	00003540c00046413r		; 4.62858e-309
	DD	023405H
	DD	imagerel $LN14@MoveMeshY
	DD	imagerel $LN14@MoveMeshY+40
	DD	imagerel $unwind$MoveMeshY
xdata	ENDS
;	COMDAT xdata
xdata	SEGMENT
$unwind$MoveMeshY DQ 00000020400010401r		; 1.09495e-311
xdata	ENDS
;	COMDAT xdata
xdata	SEGMENT
$chain$11$MoveScaleMesh DD 021H
	DD	imagerel $LN16@MoveScaleM
	DD	imagerel $LN16@MoveScaleM+62
	DD	imagerel $unwind$MoveScaleMesh
xdata	ENDS
;	COMDAT xdata
xdata	SEGMENT
$chain$10$MoveScaleMesh DQ 00001b87400167421r	; 2.39268e-309
	DQ	0000398550002a867r		; 4.99953e-309
	DQ	00005783c0004884ar		; 7.60651e-309
	DQ	0000ed42800066830r		; 2.06219e-308
	DQ	000107412000fc418r		; 2.28813e-308
	DQ	0001634040011640br		; 3.08773e-308
	DD	imagerel $LN16@MoveScaleM
	DD	imagerel $LN16@MoveScaleM+62
	DD	imagerel $unwind$MoveScaleMesh
xdata	ENDS
;	COMDAT xdata
xdata	SEGMENT
$unwind$MoveScaleMesh DQ 00012010f00050f01r	; 2.50378e-308
	DQ	000005004e006f008r		; 4.34688e-310
xdata	ENDS
;	COMDAT xdata
xdata	SEGMENT
$chain$8$MoveMeshTo DD 021H
	DD	imagerel $LN16@MoveMeshTo
	DD	imagerel $LN16@MoveMeshTo+50
	DD	imagerel $unwind$MoveMeshTo
xdata	ENDS
;	COMDAT xdata
xdata	SEGMENT
$chain$7$MoveMeshTo DQ 00001784f00104f21r	; 2.04422e-309
	DQ	00006e42f00026843r		; 9.58359e-309
	DQ	00008c4180007d428r		; 1.21906e-308
	DQ	0000e640b000f7412r		; 2.00129e-308
	DD	0c3404H
	DD	imagerel $LN16@MoveMeshTo
	DD	imagerel $LN16@MoveMeshTo+50
	DD	imagerel $unwind$MoveMeshTo
xdata	ENDS
;	COMDAT xdata
xdata	SEGMENT
$unwind$MoveMeshTo DQ 0f006820a00030a01r	; -4.368e+231
	DD	05004H
xdata	ENDS
;	COMDAT xdata
xdata	SEGMENT
$chain$5$ScaleMesh DD 021H
	DD	imagerel $LN12@ScaleMesh
	DD	imagerel $LN12@ScaleMesh+38
	DD	imagerel $unwind$ScaleMesh
xdata	ENDS
;	COMDAT xdata
xdata	SEGMENT
$chain$4$ScaleMesh DQ 00000f436000a3621r	; 1.32663e-309
	DQ	0000674240001e42fr		; 8.97494e-309
	DQ	00004540500056416r		; 6.0191e-309
	DD	imagerel $LN12@ScaleMesh
	DD	imagerel $LN12@ScaleMesh+38
	DD	imagerel $unwind$ScaleMesh
xdata	ENDS
;	COMDAT xdata
xdata	SEGMENT
$unwind$ScaleMesh DQ 03002120600020601r		; 1.95074e-77
xdata	ENDS
;	COMDAT xdata
xdata	SEGMENT
$chain$2$ScaleMeshX DD 021H
	DD	imagerel $LN12@ScaleMeshX
	DD	imagerel $LN12@ScaleMeshX+34
	DD	imagerel $unwind$ScaleMeshX
xdata	ENDS
;	COMDAT xdata
xdata	SEGMENT
$chain$1$ScaleMeshX DQ 00000741200041221r	; 6.3053e-310
	DD	023405H
	DD	imagerel $LN12@ScaleMeshX
	DD	imagerel $LN12@ScaleMeshX+34
	DD	imagerel $unwind$ScaleMeshX
xdata	ENDS
;	COMDAT xdata
xdata	SEGMENT
$unwind$ScaleMeshX DQ 00000020400010401r	; 1.09495e-311
xdata	ENDS
;	COMDAT xdata
xdata	SEGMENT
$chain$2$ScaleMeshY DD 021H
	DD	imagerel $LN12@ScaleMeshY
	DD	imagerel $LN12@ScaleMeshY+38
	DD	imagerel $unwind$ScaleMeshY
xdata	ENDS
;	COMDAT xdata
xdata	SEGMENT
$chain$1$ScaleMeshY DQ 00000741200041221r	; 6.3053e-310
	DD	023405H
	DD	imagerel $LN12@ScaleMeshY
	DD	imagerel $LN12@ScaleMeshY+38
	DD	imagerel $unwind$ScaleMeshY
xdata	ENDS
;	COMDAT xdata
xdata	SEGMENT
$unwind$ScaleMeshY DQ 00000020400010401r	; 1.09495e-311
xdata	ENDS
;	COMDAT xdata
xdata	SEGMENT
$chain$5$ChangeTexCoordTo DD 021H
	DD	imagerel $LN18@ChangeTexC
	DD	imagerel $LN18@ChangeTexC+50
	DD	imagerel $unwind$ChangeTexCoordTo
xdata	ENDS
;	COMDAT xdata
xdata	SEGMENT
$chain$4$ChangeTexCoordTo DQ 00000f436000a3621r	; 1.32663e-309
	DQ	00008c4130001d427r		; 1.21905e-308
	DQ	0000654050007640ar		; 8.80045e-309
	DD	imagerel $LN18@ChangeTexC
	DD	imagerel $LN18@ChangeTexC+50
	DD	imagerel $unwind$ChangeTexCoordTo
xdata	ENDS
;	COMDAT xdata
xdata	SEGMENT
$unwind$ChangeTexCoordTo DQ 0e005120900040901r	; -3.53136e+154
	DD	030027003H
END
