; Listing generated by Microsoft (R) Optimizing Compiler Version 19.37.32824.0 

include listing.inc

INCLUDELIB OLDNAMES

PUBLIC	collisionMatrix
PUBLIC	gravAccel
collisionMatrix DQ 0000000000000001H
	DQ	0000000000000002H
	DQ	ffffffffffffffffH
	DQ	000000000000000bH
	DQ	ffffffffffffffffH
	DQ	ffffffffffffffffH
	DQ	ffffffffffffffffH
	DQ	ffffffffffffffffH
	DQ	ffffffffffffffffH
	DQ	ffffffffffffffffH
	DQ	ffffffffffffffffH
	DQ	ffffffffffffffffH
	DQ	ffffffffffffffffH
	DQ	ffffffffffffffffH
	DQ	ffffffffffffffffH
	DQ	ffffffffffffffffH
	DQ	ffffffffffffffffH
	DQ	ffffffffffffffffH
	DQ	ffffffffffffffffH
	DQ	ffffffffffffffffH
	DQ	ffffffffffffffffH
	DQ	ffffffffffffffffH
	DQ	ffffffffffffffffH
	DQ	ffffffffffffffffH
	DQ	ffffffffffffffffH
	DQ	ffffffffffffffffH
	DQ	ffffffffffffffffH
	DQ	ffffffffffffffffH
	DQ	ffffffffffffffffH
	DQ	ffffffffffffffffH
	DQ	ffffffffffffffffH
	DQ	ffffffffffffffffH
	DQ	ffffffffffffffffH
	DQ	ffffffffffffffffH
	DQ	ffffffffffffffffH
	DQ	ffffffffffffffffH
	DQ	ffffffffffffffffH
	DQ	ffffffffffffffffH
	DQ	ffffffffffffffffH
	DQ	ffffffffffffffffH
	DQ	ffffffffffffffffH
	DQ	ffffffffffffffffH
	DQ	ffffffffffffffffH
	DQ	ffffffffffffffffH
	DQ	ffffffffffffffffH
	DQ	ffffffffffffffffH
	DQ	ffffffffffffffffH
	DQ	ffffffffffffffffH
	DQ	ffffffffffffffffH
	DQ	ffffffffffffffffH
	DQ	ffffffffffffffffH
	DQ	ffffffffffffffffH
	DQ	ffffffffffffffffH
	DQ	ffffffffffffffffH
	DQ	ffffffffffffffffH
	DQ	ffffffffffffffffH
	DQ	ffffffffffffffffH
	DQ	ffffffffffffffffH
	DQ	ffffffffffffffffH
	DQ	ffffffffffffffffH
	DQ	ffffffffffffffffH
	DQ	ffffffffffffffffH
	DQ	ffffffffffffffffH
	DQ	ffffffffffffffffH
gravAccel DD	0bee66666r			; -0.45
PUBLIC	PhysicsInit
;	COMDAT pdata
pdata	SEGMENT
$pdata$PhysicsInit DD imagerel $LN4@PhysicsIni
	DD	imagerel $LN4@PhysicsIni+30
	DD	imagerel $unwind$PhysicsInit
;	COMDAT xdata
xdata	SEGMENT
$unwind$PhysicsInit DQ 00000420400010401r	; 3.58617e-310
END
