; Listing generated by Microsoft (R) Optimizing Compiler Version 19.37.32824.0 

include listing.inc

INCLUDELIB OLDNAMES

PUBLIC	plrGrounded
PUBLIC	plrDmg
PUBLIC	??_C@_04EAPMNACM@idle@				; `string'
PUBLIC	??_C@_04PHLAALHH@Walk@				; `string'
PUBLIC	??_C@_03LGMJKEGG@run@				; `string'
PUBLIC	??_C@_0BA@KADFEIOO@idle?5transition@		; `string'
PUBLIC	??_C@_04NJIOBGCF@jump@				; `string'
PUBLIC	??_C@_07BBGBODP@attack1@			; `string'
PUBLIC	??_C@_06BALNJMNP@player@			; `string'
PUBLIC	??_C@_0CO@JODNKDJP@images?1Retro?5Inventory?1Original@ ; `string'
PUBLIC	??_C@_0DE@IMENIABH@images?1Retro?5Inventory?1Original@ ; `string'
PUBLIC	jumpForce
PUBLIC	shiftPressET
PUBLIC	attack1ColOffsets
PUBLIC	attk1MoveAmnts
PUBLIC	origPlayerSpeed
PUBLIC	playerAccel
PUBLIC	minJumpET
PUBLIC	attack1MoveAmnt
EXTRN	__imp_glDeleteTextures:PROC
EXTRN	__imp_calloc:PROC
COMM	animWalk:BYTE
COMM	negPlrPos:QWORD
COMM	nLastFrmJmp:BYTE
COMM	jumpET:DWORD
COMM	attack1Col:QWORD:02H
COMM	jumped:BYTE
COMM	scaleX:DWORD
COMM	jmpN_NotJmped:BYTE
COMM	lastFrmJmp:BYTE
COMM	movingX:BYTE
COMM	jumping:BYTE
_DATA	ENDS
;	COMDAT ??_C@_0DE@IMENIABH@images?1Retro?5Inventory?1Original@
CONST	SEGMENT
??_C@_0DE@IMENIABH@images?1Retro?5Inventory?1Original@ DB 'images/Retro I'
	DB	'nventory/Original/Health_01_Bar01.png', 00H	; `string'
CONST	ENDS
;	COMDAT ??_C@_0CO@JODNKDJP@images?1Retro?5Inventory?1Original@
CONST	SEGMENT
??_C@_0CO@JODNKDJP@images?1Retro?5Inventory?1Original@ DB 'images/Retro I'
	DB	'nventory/Original/Health_01.png', 00H	; `string'
CONST	ENDS
;	COMDAT ??_C@_06BALNJMNP@player@
CONST	SEGMENT
??_C@_06BALNJMNP@player@ DB 'player', 00H		; `string'
CONST	ENDS
;	COMDAT ??_C@_07BBGBODP@attack1@
CONST	SEGMENT
??_C@_07BBGBODP@attack1@ DB 'attack1', 00H		; `string'
CONST	ENDS
;	COMDAT ??_C@_04NJIOBGCF@jump@
CONST	SEGMENT
??_C@_04NJIOBGCF@jump@ DB 'jump', 00H			; `string'
CONST	ENDS
;	COMDAT ??_C@_0BA@KADFEIOO@idle?5transition@
CONST	SEGMENT
??_C@_0BA@KADFEIOO@idle?5transition@ DB 'idle transition', 00H ; `string'
CONST	ENDS
;	COMDAT ??_C@_03LGMJKEGG@run@
CONST	SEGMENT
??_C@_03LGMJKEGG@run@ DB 'run', 00H			; `string'
CONST	ENDS
;	COMDAT ??_C@_04PHLAALHH@Walk@
CONST	SEGMENT
??_C@_04PHLAALHH@Walk@ DB 'Walk', 00H			; `string'
CONST	ENDS
;	COMDAT ??_C@_04EAPMNACM@idle@
CONST	SEGMENT
??_C@_04EAPMNACM@idle@ DB 'idle', 00H			; `string'
plrGrounded DB	01H
shiftPressET DD	03f933333r			; 1.15
	ORG $+4
attack1ColOffsets DD 0bdf5c28fr			; -0.12
	DD	0beeb851fr			; -0.46
	DD	03e51eb85r			; 0.205
	DD	03e000000r			; 0.125
playerAccel DD	03f333333r			; 0.7
plrDmg	DD	03f000000r			; 0.5
jumpForce DD	03f866666r			; 1.05
	ORG $+4
attk1MoveAmnts DD 000000000r			; 0
	DD	000000000r			; 0
	DD	03d480002r			; 0.0488281
	DD	03bb1c71er			; 0.00542535
	DD	03c31c71er			; 0.0108507
	DD	000000000r			; 0
	DD	000000000r			; 0
	DD	000000000r			; 0
origPlayerSpeed DD 03be56042r			; 0.007
immuneTime DD	03e4ccccdr			; 0.2
minJumpET DD	03e4ccccdr			; 0.2
attack1MoveAmnt DD 041a00000r			; 20
PUBLIC	UpdateAttk1MP
PUBLIC	TryDestAttk1
PUBLIC	Lerp
PUBLIC	FAvg
PUBLIC	StartNonLoopAnim3
PUBLIC	StartAnim
PUBLIC	FinishedAnim2
PUBLIC	FinishedAnim
PUBLIC	CheckResetAnim
PUBLIC	ResetAnim
PUBLIC	limitedDeltaTime
PUBLIC	NegVector
PUBLIC	PlayerUpdate
PUBLIC	PlayerInit
frm1LstFrm DB	01H DUP (?)
	ALIGN	8

attack1ColNode DQ 01H DUP (?)
attack1Ent DQ	01H DUP (?)
_BSS	ENDS
;	COMDAT pdata
pdata	SEGMENT
$pdata$TryDestAttk1 DD imagerel $LN27@TryDestAtt
	DD	imagerel $LN27@TryDestAtt+23
	DD	imagerel $unwind$TryDestAttk1
pdata	ENDS
;	COMDAT pdata
pdata	SEGMENT
$pdata$0$TryDestAttk1 DD imagerel $LN27@TryDestAtt+23
	DD	imagerel $LN27@TryDestAtt+210
	DD	imagerel $chain$0$TryDestAttk1
pdata	ENDS
;	COMDAT pdata
pdata	SEGMENT
$pdata$1$TryDestAttk1 DD imagerel $LN27@TryDestAtt+210
	DD	imagerel $LN27@TryDestAtt+215
	DD	imagerel $chain$1$TryDestAttk1
pdata	ENDS
;	COMDAT pdata
pdata	SEGMENT
$pdata$limitedDeltaTime DD imagerel $LN10@limitedDel
	DD	imagerel $LN10@limitedDel+294
	DD	imagerel $unwind$limitedDeltaTime
pdata	ENDS
;	COMDAT pdata
pdata	SEGMENT
$pdata$PlayerUpdate DD imagerel $LN201@PlayerUpda
	DD	imagerel $LN201@PlayerUpda+24
	DD	imagerel $unwind$PlayerUpdate
pdata	ENDS
;	COMDAT pdata
pdata	SEGMENT
$pdata$8$PlayerUpdate DD imagerel $LN201@PlayerUpda+24
	DD	imagerel $LN201@PlayerUpda+91
	DD	imagerel $chain$8$PlayerUpdate
pdata	ENDS
;	COMDAT pdata
pdata	SEGMENT
$pdata$9$PlayerUpdate DD imagerel $LN201@PlayerUpda+91
	DD	imagerel $LN201@PlayerUpda+826
	DD	imagerel $chain$9$PlayerUpdate
pdata	ENDS
;	COMDAT pdata
pdata	SEGMENT
$pdata$10$PlayerUpdate DD imagerel $LN201@PlayerUpda+826
	DD	imagerel $LN201@PlayerUpda+1555
	DD	imagerel $chain$10$PlayerUpdate
pdata	ENDS
;	COMDAT pdata
pdata	SEGMENT
$pdata$11$PlayerUpdate DD imagerel $LN201@PlayerUpda+1555
	DD	imagerel $LN201@PlayerUpda+2437
	DD	imagerel $chain$11$PlayerUpdate
pdata	ENDS
;	COMDAT pdata
pdata	SEGMENT
$pdata$12$PlayerUpdate DD imagerel $LN201@PlayerUpda+2437
	DD	imagerel $LN201@PlayerUpda+2569
	DD	imagerel $chain$12$PlayerUpdate
pdata	ENDS
;	COMDAT pdata
pdata	SEGMENT
$pdata$13$PlayerUpdate DD imagerel $LN201@PlayerUpda+2569
	DD	imagerel $LN201@PlayerUpda+2732
	DD	imagerel $chain$13$PlayerUpdate
pdata	ENDS
;	COMDAT pdata
pdata	SEGMENT
$pdata$14$PlayerUpdate DD imagerel $LN201@PlayerUpda+2732
	DD	imagerel $LN201@PlayerUpda+2885
	DD	imagerel $chain$14$PlayerUpdate
pdata	ENDS
;	COMDAT pdata
pdata	SEGMENT
$pdata$PlayerInit DD imagerel $LN24@PlayerInit
	DD	imagerel $LN24@PlayerInit+1086
	DD	imagerel $unwind$PlayerInit
;	COMDAT xdata
xdata	SEGMENT
$unwind$PlayerInit DQ 0000f640f00061e19r	; 2.14036e-308
	DQ	0700bb20f000e340fr		; 5.37473e+231
	DD	imagerel __GSHandlerCheck
	DD	058H
xdata	ENDS
;	COMDAT xdata
xdata	SEGMENT
$chain$14$PlayerUpdate DD 021H
	DD	imagerel $LN201@PlayerUpda
	DD	imagerel $LN201@PlayerUpda+24
	DD	imagerel $unwind$PlayerUpdate
xdata	ENDS
;	COMDAT xdata
xdata	SEGMENT
$chain$13$PlayerUpdate DQ 00007780000040021r	; 1.03866e-308
	DD	086800H
	DD	imagerel $LN201@PlayerUpda
	DD	imagerel $LN201@PlayerUpda+24
	DD	imagerel $unwind$PlayerUpdate
xdata	ENDS
;	COMDAT xdata
xdata	SEGMENT
$chain$12$PlayerUpdate DD 021H
	DD	imagerel $LN201@PlayerUpda+826
	DD	imagerel $LN201@PlayerUpda+1555
	DD	imagerel $chain$10$PlayerUpdate
xdata	ENDS
;	COMDAT xdata
xdata	SEGMENT
$chain$11$PlayerUpdate DQ 00016540800020821r	; 3.10512e-308
	DD	imagerel $LN201@PlayerUpda+826
	DD	imagerel $LN201@PlayerUpda+1555
	DD	imagerel $chain$10$PlayerUpdate
xdata	ENDS
;	COMDAT xdata
xdata	SEGMENT
$chain$10$PlayerUpdate DD 021H
	DD	imagerel $LN201@PlayerUpda+24
	DD	imagerel $LN201@PlayerUpda+91
	DD	imagerel $chain$8$PlayerUpdate
xdata	ENDS
;	COMDAT xdata
xdata	SEGMENT
$chain$9$PlayerUpdate DQ 00003b80500020521r	; 5.17166e-309
	DD	imagerel $LN201@PlayerUpda+24
	DD	imagerel $LN201@PlayerUpda+91
	DD	imagerel $chain$8$PlayerUpdate
xdata	ENDS
;	COMDAT xdata
xdata	SEGMENT
$chain$8$PlayerUpdate DQ 00004a83a00123a21r	; 6.47654e-309
	DQ	00006882c00059835r		; 9.08375e-309
	DQ	00008681b0007781fr		; 1.16909e-308
	DQ	00013e40c0012f417r		; 2.76616e-308
	DQ	00017640400187408r		; 3.25288e-308
	DD	imagerel $LN201@PlayerUpda
	DD	imagerel $LN201@PlayerUpda+24
	DD	imagerel $unwind$PlayerUpdate
xdata	ENDS
;	COMDAT xdata
xdata	SEGMENT
$unwind$PlayerUpdate DQ 00002c81800051801r	; 3.86831e-309
	DQ	0000030040014010br		; 2.60836e-310
xdata	ENDS
;	COMDAT xdata
xdata	SEGMENT
$unwind$limitedDeltaTime DQ 00002881600051601r	; 3.5206e-309
	DQ	00000820400036809r		; 7.06285e-310
xdata	ENDS
;	COMDAT xdata
xdata	SEGMENT
$chain$1$TryDestAttk1 DD 021H
	DD	imagerel $LN27@TryDestAtt
	DD	imagerel $LN27@TryDestAtt+23
	DD	imagerel $unwind$TryDestAttk1
xdata	ENDS
;	COMDAT xdata
xdata	SEGMENT
$chain$0$TryDestAttk1 DQ 00004340500020521r	; 5.84527e-309
	DD	imagerel $LN27@TryDestAtt
	DD	imagerel $LN27@TryDestAtt+23
	DD	imagerel $unwind$TryDestAttk1
xdata	ENDS
;	COMDAT xdata
xdata	SEGMENT
$unwind$TryDestAttk1 DQ 00000420400010401r	; 3.58617e-310
END
