; Listing generated by Microsoft (R) Optimizing Compiler Version 19.44.35211.0 

include listing.inc

INCLUDELIB OLDNAMES

__4C2AD0C7_winpackagefamily@h DB 01H
__9DED9ED1_winapifamily@h DB 01H
__0B1C67B3_gl@h DB 01H
__D7C03EE9_glu@h DB 01H
__5B769280_glew@h DB 01H
__F2638511_stdbool@h DB 01H
__8C83BECC_concurrencysal@h DB 01H
__608E3340_sal@h DB 01H
__FB67E29A_vadefs@h DB 01H
__1D1B619C_vcruntime@h DB 01H
__735960E1_corecrt@h DB 01H
__955456CD_stddef@h DB 01H
__836A8CFC_stdint@h DB 01H
__0A1327A7_glfw3@h DB 01H
__1D9A7FA2_corecrt_math@h DB 01H
__2E93F1C0_math@h DB 01H
__7570C268_vectors@h DB 01H
__12FEDF4E_sdkddkver@h DB 01H
__9BAEE128_excpt@h DB 01H
__B7B53233_stdarg@h DB 01H
__6B04FCB3_specstrings_undef@h DB 01H
__F4027AF7_specstrings_strict@h DB 01H
__B90340D4_sdv_driverspecs@h DB 01H
__BFFF5AD3_driverspecs@h DB 01H
__32847078_specstrings@h DB 01H
__108B2620_corecrt_wctype@h DB 01H
__6CD6613D_ctype@h DB 01H
__30902A1F_kernelspecs@h DB 01H
__376FD5CA_basetsd@h DB 01H
__13DE2371_errno@h DB 01H
__8C6AE390_vcruntime_string@h DB 01H
__8ACB2152_corecrt_memcpy_s@h DB 01H
__EA6C9D17_corecrt_memory@h DB 01H
__0DF2AF52_corecrt_wstring@h DB 01H
__6E889ECC_string@h DB 01H
__9BEDF4DE_guiddef@h DB 01H
__51BFD2FE_pshpack4@h DB 01H
__31652CEA_poppack@h DB 01H
__5532AE4C_pshpack2@h DB 01H
__58A52B9A_pshpack8@h DB 01H
__57741015_pshpack1@h DB 01H
__CDE68C90_apiset@h DB 01H
__0BF06E8D_ktmtypes@h DB 01H
__40C200C0_winnt@h DB 01H
__9336F789_minwindef@h DB 01H
__55136115_windef@h DB 01H
__32205BF0_apisetcconv@h DB 01H
__B48FDEA0_minwinbase@h DB 01H
__3551B028_apiquery2@h DB 01H
__65BE04AA_processenv@h DB 01H
__4767CA46_fileapi@h DB 01H
__282E6C4B_fileapifromapp@h DB 01H
__393AF12C_debugapi@h DB 01H
__EBC502B8_utilapiset@h DB 01H
__1EAD8C69_handleapi@h DB 01H
__D8EF9B29_errhandlingapi@h DB 01H
__97FC1204_fibersapi@h DB 01H
__27448220_namedpipeapi@h DB 01H
__6EA33B2A_profileapi@h DB 01H
__EAC6F673_heapapi@h DB 01H
__D64EEA5A_ioapiset@h DB 01H
__144BD4B6_synchapi@h DB 01H
__03B1C640_interlockedapi@h DB 01H
__DC64CB38_processthreadsapi@h DB 01H
__D719B518_sysinfoapi@h DB 01H
__410385B1_memoryapi@h DB 01H
__C1AD45EF_enclaveapi@h DB 01H
__F4C3AA32_threadpoollegacyapiset@h DB 01H
__AC5A7A9F_threadpoolapiset@h DB 01H
__F5254B21_jobapi@h DB 01H
__BCEA6EE8_jobapi2@h DB 01H
__D18ACE72_wow64apiset@h DB 01H
__669B0D4A_libloaderapi@h DB 01H
__645F7034_securitybaseapi@h DB 01H
__67E58557_namespaceapi@h DB 01H
__599D9D3A_systemtopologyapi@h DB 01H
__2337E373_processtopologyapi@h DB 01H
__02BFF239_securityappcontainer@h DB 01H
__9C196272_realtimeapiset@h DB 01H
__5AB313A4_winerror@h DB 01H
__B7E7187B_timezoneapi@h DB 01H
__6DE9EB6F_winbase@h DB 01H
__56B2AFF2_wingdi@h DB 01H
__BA1161A9_tvout@h DB 01H
__0501A018_winuser@h DB 01H
__EF12FA99_datetimeapi@h DB 01H
__8FA7C3CA_winnls@h DB 01H
__390F0C47_stringapiset@h DB 01H
__28605B0A_wincontypes@h DB 01H
__BFBDE86D_consoleapi@h DB 01H
__C3CAFBF0_consoleapi2@h DB 01H
__C20891C7_consoleapi3@h DB 01H
__717C98B6_wincon@h DB 01H
__2884C177_verrsrc@h DB 01H
__A3FD3A34_winver@h DB 01H
__6F8AD9F1_reason@h DB 01H
__4C90FD6F_winreg@h DB 01H
__68AFEBAD_wnnc@h DB 01H
__5A7AB086_winnetwk@h DB 01H
__859C3CD3_cderr@h DB 01H
__81B12F1A_dde@h DB 01H
__DD3AF97A_ddeml@h DB 01H
__E6B47715_dlgs@h DB 01H
__944BD57D_lzexpand@h DB 01H
__E4B2DFC7_mmsyscom@h DB 01H
__5287D88F_mciapi@h DB 01H
__DBDC1384_mmiscapi@h DB 01H
__1A78C0D7_mmiscapi2@h DB 01H
__0D05975C_playsoundapi@h DB 01H
__757A63A9_mmeapi@h DB 01H
__6326AB05_timeapi@h DB 01H
__77D483B2_joystickapi@h DB 01H
__59CF7431_mmsystem@h DB 01H
__CEAC417E_nb30@h DB 01H
__3BA1A118_rpcdcep@h DB 01H
__74064437_rpcdce@h DB 01H
__90546602_rpcnsi@h DB 01H
__83114A2C_rpcnterr@h DB 01H
__CA67519E_rpcasync@h DB 01H
__D8CEBCD8_rpc@h DB 01H
__9F43AC2D_shellapi@h DB 01H
__6C8D3703_winperf@h DB 01H
__AB40A29E_inaddr@h DB 01H
__40D4FEA5_winsock@h DB 01H
__51394074_bcrypt@h DB 01H
__F177C154_ncrypt@h DB 01H
__1445529E_dpapi@h DB 01H
__5743FB20_wincrypt@h DB 01H
__97CA12BF_winefs@h DB 01H
__6DF63719_rpcnsip@h DB 01H
__031EFCA1_rpcsal@h DB 01H
__BA08D1DA_rpcndr@h DB 01H
__3A941F83_wtypesbase@h DB 01H
__C244FEE1_wtypes@h DB 01H
__FB7C5F97_winioctl@h DB 01H
__4B65E4AC_winsmcrd@h DB 01H
__1EA80168_winscard@h DB 01H
__516FC0F9_prsht@h DB 01H
__88BA11C6_winspool@h DB 01H
__211DB995_corecrt_malloc@h DB 01H
__99AED4FB_corecrt_search@h DB 01H
__8B813BF6_corecrt_wstdlib@h DB 01H
__3D1CA2C3_limits@h DB 01H
__E8FB0A68_stdlib@h DB 01H
__18DB4C56_unknwnbase@h DB 01H
__1AE6FA1A_objidlbase@h DB 01H
__7F98E437_cguid@h DB 01H
__6B2DFB49_combaseapi@h DB 01H
__CB0E8B37_unknwn@h DB 01H
__D981EF0A_objidl@h DB 01H
__37089EB8_oaidl@h DB 01H
__CA2DDD8B_propidlbase@h DB 01H
__39ED323E_coml2api@h DB 01H
__78E82682_oleidl@h DB 01H
__97883CFE_servprov@h DB 01H
__CE01DDB9_msxml@h DB 01H
__A4784895_urlmon@h DB 01H
__325F1C97_propidl@h DB 01H
__D3D43343_objbase@h DB 01H
__B3A2AF1B_oleauto@h DB 01H
__5722A8AA_ole2@h DB 01H
__590A450A_commdlg@h DB 01H
__2FE8A10C_stralign@h DB 01H
__34558472_winsvc@h DB 01H
__058845F1_mcx@h DB 01H
__7F16006B_ime_cmodes@h DB 01H
__0A3AF599_imm@h DB 01H
__11B87C25_Windows@h DB 01H
__60B45B40_corecrt_stdio_config@h DB 01H
__CFA3741E_corecrt_wstdio@h DB 01H
__B3FE3303_stdio@h DB 01H
__DD0D2CA2_main@h DB 01H
__9378A798_Debug@h DB 01H
__29DBA756_animations@h DB 01H
__A6D01AF2_Physics@h DB 01H
__13A4412B_mesh@h DB 01H
__E37E1C35_collisions@h DB 01H
__7CA6EAD6_EntityManager@h DB 01H
__74ACC5BD_collisions@c DB 01H
PUBLIC	SetColliderAABB
pdata	SEGMENT
$pdata$SetColliderAABB DD imagerel $LN24
	DD	imagerel $LN24+661
	DD	imagerel $unwind$SetColliderAABB
xdata	SEGMENT
$unwind$SetColliderAABB DD 021401H
	DD	070109214H
; Function compile flags: /Odtp /RTCsu
; File C:\Users\drago\OneDrive\Documents\GitHub\c-game\cGame\collisions.c
; File C:\Users\drago\OneDrive\Documents\GitHub\c-game\cGame\math.h
; File C:\Users\drago\OneDrive\Documents\GitHub\c-game\cGame\collisions.c
; File C:\Users\drago\OneDrive\Documents\GitHub\c-game\cGame\math.h
; File C:\Users\drago\OneDrive\Documents\GitHub\c-game\cGame\collisions.c
_TEXT	SEGMENT
i$1 = 32
size$2 = 36
size$3 = 40
$T4 = 44
$T5 = 48
$T6 = 52
$T7 = 56
tv152 = 60
tv158 = 64
tv164 = 68
tv170 = 72
collider$ = 96
offsets$ = 104
physicsData$ = 112
SetColliderAABB PROC

; 3    : void SetColliderAABB(Vector2 collider[NUM_VEC2_AABB], Vector2 offsets[NUM_VEC2_AABB], PhysicsData* physicsData) {

$LN24:
  00000	4c 89 44 24 18	 mov	 QWORD PTR [rsp+24], r8
  00005	48 89 54 24 10	 mov	 QWORD PTR [rsp+16], rdx
  0000a	48 89 4c 24 08	 mov	 QWORD PTR [rsp+8], rcx
  0000f	57		 push	 rdi
  00010	48 83 ec 50	 sub	 rsp, 80			; 00000050H
  00014	48 8d 0d 00 00
	00 00		 lea	 rcx, OFFSET FLAT:__EB74335E_EntityManager@c
  0001b	e8 00 00 00 00	 call	 __CheckForDebuggerJustMyCode
  00020	90		 npad	 1

; 4    : 	for (int i = 0; i < NUM_VEC2_AABB; i++) {

  00021	c7 44 24 20 00
	00 00 00	 mov	 DWORD PTR i$1[rsp], 0
  00029	eb 0a		 jmp	 SHORT $LN4@SetCollide
$LN2@SetCollide:
  0002b	8b 44 24 20	 mov	 eax, DWORD PTR i$1[rsp]
  0002f	ff c0		 inc	 eax
  00031	89 44 24 20	 mov	 DWORD PTR i$1[rsp], eax
$LN4@SetCollide:
  00035	83 7c 24 20 02	 cmp	 DWORD PTR i$1[rsp], 2
  0003a	7d 79		 jge	 SHORT $LN3@SetCollide

; 5    : 		collider[i].x = physicsData->transform.position.x + offsets[i].x * physicsData->transform.scale.x;

  0003c	48 63 44 24 20	 movsxd	 rax, DWORD PTR i$1[rsp]
  00041	48 8b 4c 24 68	 mov	 rcx, QWORD PTR offsets$[rsp]
  00046	48 8b 54 24 70	 mov	 rdx, QWORD PTR physicsData$[rsp]
  0004b	f3 0f 10 04 c1	 movss	 xmm0, DWORD PTR [rcx+rax*8]
  00050	f3 0f 59 42 04	 mulss	 xmm0, DWORD PTR [rdx+4]
  00055	48 8b 44 24 70	 mov	 rax, QWORD PTR physicsData$[rsp]
  0005a	f3 0f 10 48 0c	 movss	 xmm1, DWORD PTR [rax+12]
  0005f	f3 0f 58 c8	 addss	 xmm1, xmm0
  00063	0f 28 c1	 movaps	 xmm0, xmm1
  00066	48 63 44 24 20	 movsxd	 rax, DWORD PTR i$1[rsp]
  0006b	48 8b 4c 24 60	 mov	 rcx, QWORD PTR collider$[rsp]
  00070	f3 0f 11 04 c1	 movss	 DWORD PTR [rcx+rax*8], xmm0

; 6    : 		collider[i].y = physicsData->transform.position.y + offsets[i].y * physicsData->transform.scale.y;

  00075	48 63 44 24 20	 movsxd	 rax, DWORD PTR i$1[rsp]
  0007a	48 8b 4c 24 68	 mov	 rcx, QWORD PTR offsets$[rsp]
  0007f	48 8b 54 24 70	 mov	 rdx, QWORD PTR physicsData$[rsp]
  00084	f3 0f 10 44 c1
	04		 movss	 xmm0, DWORD PTR [rcx+rax*8+4]
  0008a	f3 0f 59 42 08	 mulss	 xmm0, DWORD PTR [rdx+8]
  0008f	48 8b 44 24 70	 mov	 rax, QWORD PTR physicsData$[rsp]
  00094	f3 0f 10 48 10	 movss	 xmm1, DWORD PTR [rax+16]
  00099	f3 0f 58 c8	 addss	 xmm1, xmm0
  0009d	0f 28 c1	 movaps	 xmm0, xmm1
  000a0	48 63 44 24 20	 movsxd	 rax, DWORD PTR i$1[rsp]
  000a5	48 8b 4c 24 60	 mov	 rcx, QWORD PTR collider$[rsp]
  000aa	f3 0f 11 44 c1
	04		 movss	 DWORD PTR [rcx+rax*8+4], xmm0

; 7    : 	}

  000b0	e9 76 ff ff ff	 jmp	 $LN2@SetCollide
$LN3@SetCollide:

; 8    : 	checkGridScale3(collider);

  000b5	b8 08 00 00 00	 mov	 eax, 8
  000ba	48 6b c0 01	 imul	 rax, rax, 1
  000be	b9 08 00 00 00	 mov	 ecx, 8
  000c3	48 6b c9 00	 imul	 rcx, rcx, 0
  000c7	48 8b 54 24 60	 mov	 rdx, QWORD PTR collider$[rsp]
  000cc	4c 8b 44 24 60	 mov	 r8, QWORD PTR collider$[rsp]
  000d1	f3 0f 10 04 02	 movss	 xmm0, DWORD PTR [rdx+rax]
  000d6	f3 41 0f 5c 04
	08		 subss	 xmm0, DWORD PTR [r8+rcx]
  000dc	f3 0f 59 05 00
	00 00 00	 mulss	 xmm0, DWORD PTR __real@40000000
  000e4	f3 0f 11 44 24
	24		 movss	 DWORD PTR size$2[rsp], xmm0
; File C:\Users\drago\OneDrive\Documents\GitHub\c-game\cGame\math.h

; 19   : 	return orig * ((orig >= .0f) * 2.0f - 1.0f);

  000ea	f3 0f 10 44 24
	24		 movss	 xmm0, DWORD PTR size$2[rsp]
  000f0	0f 2f 05 00 00
	00 00		 comiss	 xmm0, DWORD PTR __real@00000000
  000f7	72 0a		 jb	 SHORT $LN10@SetCollide
  000f9	c7 44 24 3c 01
	00 00 00	 mov	 DWORD PTR tv152[rsp], 1
  00101	eb 08		 jmp	 SHORT $LN11@SetCollide
$LN10@SetCollide:
  00103	c7 44 24 3c 00
	00 00 00	 mov	 DWORD PTR tv152[rsp], 0
$LN11@SetCollide:
  0010b	f3 0f 2a 44 24
	3c		 cvtsi2ss xmm0, DWORD PTR tv152[rsp]
  00111	f3 0f 59 05 00
	00 00 00	 mulss	 xmm0, DWORD PTR __real@40000000
  00119	f3 0f 5c 05 00
	00 00 00	 subss	 xmm0, DWORD PTR __real@3f800000
  00121	f3 0f 10 4c 24
	24		 movss	 xmm1, DWORD PTR size$2[rsp]
  00127	f3 0f 59 c8	 mulss	 xmm1, xmm0
  0012b	0f 28 c1	 movaps	 xmm0, xmm1
  0012e	f3 0f 11 44 24
	2c		 movss	 DWORD PTR $T4[rsp], xmm0
  00134	f3 0f 10 05 00
	00 00 00	 movss	 xmm0, DWORD PTR cellSize
  0013c	0f 2f 05 00 00
	00 00		 comiss	 xmm0, DWORD PTR __real@00000000
  00143	72 0a		 jb	 SHORT $LN14@SetCollide
  00145	c7 44 24 40 01
	00 00 00	 mov	 DWORD PTR tv158[rsp], 1
  0014d	eb 08		 jmp	 SHORT $LN15@SetCollide
$LN14@SetCollide:
  0014f	c7 44 24 40 00
	00 00 00	 mov	 DWORD PTR tv158[rsp], 0
$LN15@SetCollide:
  00157	f3 0f 2a 44 24
	40		 cvtsi2ss xmm0, DWORD PTR tv158[rsp]
  0015d	f3 0f 59 05 00
	00 00 00	 mulss	 xmm0, DWORD PTR __real@40000000
  00165	f3 0f 5c 05 00
	00 00 00	 subss	 xmm0, DWORD PTR __real@3f800000
  0016d	f3 0f 10 0d 00
	00 00 00	 movss	 xmm1, DWORD PTR cellSize
  00175	f3 0f 59 c8	 mulss	 xmm1, xmm0
  00179	0f 28 c1	 movaps	 xmm0, xmm1
  0017c	f3 0f 11 44 24
	30		 movss	 DWORD PTR $T5[rsp], xmm0
; File C:\Users\drago\OneDrive\Documents\GitHub\c-game\cGame\collisions.c

; 8    : 	checkGridScale3(collider);

  00182	f3 0f 10 44 24
	2c		 movss	 xmm0, DWORD PTR $T4[rsp]
  00188	f3 0f 10 4c 24
	30		 movss	 xmm1, DWORD PTR $T5[rsp]
  0018e	0f 2f c1	 comiss	 xmm0, xmm1
  00191	76 0e		 jbe	 SHORT $LN5@SetCollide
  00193	f3 0f 10 44 24
	24		 movss	 xmm0, DWORD PTR size$2[rsp]
  00199	f3 0f 11 05 00
	00 00 00	 movss	 DWORD PTR cellSize, xmm0
$LN5@SetCollide:
  001a1	b8 08 00 00 00	 mov	 eax, 8
  001a6	48 6b c0 01	 imul	 rax, rax, 1
  001aa	b9 08 00 00 00	 mov	 ecx, 8
  001af	48 6b c9 00	 imul	 rcx, rcx, 0
  001b3	48 8b 54 24 60	 mov	 rdx, QWORD PTR collider$[rsp]
  001b8	4c 8b 44 24 60	 mov	 r8, QWORD PTR collider$[rsp]
  001bd	f3 0f 10 44 02
	04		 movss	 xmm0, DWORD PTR [rdx+rax+4]
  001c3	f3 41 0f 5c 44
	08 04		 subss	 xmm0, DWORD PTR [r8+rcx+4]
  001ca	f3 0f 59 05 00
	00 00 00	 mulss	 xmm0, DWORD PTR __real@40000000
  001d2	f3 0f 11 44 24
	28		 movss	 DWORD PTR size$3[rsp], xmm0
; File C:\Users\drago\OneDrive\Documents\GitHub\c-game\cGame\math.h

; 19   : 	return orig * ((orig >= .0f) * 2.0f - 1.0f);

  001d8	f3 0f 10 44 24
	28		 movss	 xmm0, DWORD PTR size$3[rsp]
  001de	0f 2f 05 00 00
	00 00		 comiss	 xmm0, DWORD PTR __real@00000000
  001e5	72 0a		 jb	 SHORT $LN18@SetCollide
  001e7	c7 44 24 44 01
	00 00 00	 mov	 DWORD PTR tv164[rsp], 1
  001ef	eb 08		 jmp	 SHORT $LN19@SetCollide
$LN18@SetCollide:
  001f1	c7 44 24 44 00
	00 00 00	 mov	 DWORD PTR tv164[rsp], 0
$LN19@SetCollide:
  001f9	f3 0f 2a 44 24
	44		 cvtsi2ss xmm0, DWORD PTR tv164[rsp]
  001ff	f3 0f 59 05 00
	00 00 00	 mulss	 xmm0, DWORD PTR __real@40000000
  00207	f3 0f 5c 05 00
	00 00 00	 subss	 xmm0, DWORD PTR __real@3f800000
  0020f	f3 0f 10 4c 24
	28		 movss	 xmm1, DWORD PTR size$3[rsp]
  00215	f3 0f 59 c8	 mulss	 xmm1, xmm0
  00219	0f 28 c1	 movaps	 xmm0, xmm1
  0021c	f3 0f 11 44 24
	34		 movss	 DWORD PTR $T6[rsp], xmm0
  00222	f3 0f 10 05 04
	00 00 00	 movss	 xmm0, DWORD PTR cellSize+4
  0022a	0f 2f 05 00 00
	00 00		 comiss	 xmm0, DWORD PTR __real@00000000
  00231	72 0a		 jb	 SHORT $LN22@SetCollide
  00233	c7 44 24 48 01
	00 00 00	 mov	 DWORD PTR tv170[rsp], 1
  0023b	eb 08		 jmp	 SHORT $LN23@SetCollide
$LN22@SetCollide:
  0023d	c7 44 24 48 00
	00 00 00	 mov	 DWORD PTR tv170[rsp], 0
$LN23@SetCollide:
  00245	f3 0f 2a 44 24
	48		 cvtsi2ss xmm0, DWORD PTR tv170[rsp]
  0024b	f3 0f 59 05 00
	00 00 00	 mulss	 xmm0, DWORD PTR __real@40000000
  00253	f3 0f 5c 05 00
	00 00 00	 subss	 xmm0, DWORD PTR __real@3f800000
  0025b	f3 0f 10 0d 04
	00 00 00	 movss	 xmm1, DWORD PTR cellSize+4
  00263	f3 0f 59 c8	 mulss	 xmm1, xmm0
  00267	0f 28 c1	 movaps	 xmm0, xmm1
  0026a	f3 0f 11 44 24
	38		 movss	 DWORD PTR $T7[rsp], xmm0
; File C:\Users\drago\OneDrive\Documents\GitHub\c-game\cGame\collisions.c

; 8    : 	checkGridScale3(collider);

  00270	f3 0f 10 44 24
	34		 movss	 xmm0, DWORD PTR $T6[rsp]
  00276	f3 0f 10 4c 24
	38		 movss	 xmm1, DWORD PTR $T7[rsp]
  0027c	0f 2f c1	 comiss	 xmm0, xmm1
  0027f	76 0e		 jbe	 SHORT $LN6@SetCollide
  00281	f3 0f 10 44 24
	28		 movss	 xmm0, DWORD PTR size$3[rsp]
  00287	f3 0f 11 05 04
	00 00 00	 movss	 DWORD PTR cellSize+4, xmm0
$LN6@SetCollide:

; 9    : }

  0028f	48 83 c4 50	 add	 rsp, 80			; 00000050H
  00293	5f		 pop	 rdi
  00294	c3		 ret	 0
SetColliderAABB ENDP
_TEXT	ENDS
END
