; Listing generated by Microsoft (R) Optimizing Compiler Version 19.44.35211.0 

include listing.inc

INCLUDELIB OLDNAMES

PUBLIC	uintMap
PUBLIC	cConst
PUBLIC	aConst
PUBLIC	??_C@_0BD@CBEDEJPH@unknown?5image?5type@	; `string'
PUBLIC	??_C@_08NOGIMCHF@outofmem@			; `string'
PUBLIC	??_C@_1LA@GJDALCKK@?$AAC?$AA?3?$AA?2?$AAU?$AAs?$AAe?$AAr?$AAs?$AA?2?$AAd?$AAr?$AAa?$AAg?$AAo?$AA?2@ ; `string'
PUBLIC	??_C@_1GM@LFNCFCEN@?$AAr?$AAi?$AA?4?$AAb?$AAi?$AAt?$AAs?$AA_?$AAp?$AAe?$AAr?$AA_?$AAc?$AAh?$AAa@ ; `string'
PUBLIC	??_C@_02JDPG@rb@				; `string'
PUBLIC	??_C@_0M@JPDHFAGK@can?8t?5fopen@		; `string'
PUBLIC	??_C@_1DO@MABJBNAJ@?$AAr?$AAe?$AAq?$AA_?$AAc?$AAo?$AAm?$AAp?$AA?5?$AA?$DO?$AA?$DN?$AA?5?$AA1?$AA?5?$AA?$CG@ ; `string'
PUBLIC	??_C@_13COJANIEC@?$AA0@				; `string'
PUBLIC	??_C@_0M@MHDBFHD@unsupported@			; `string'
PUBLIC	??_C@_0O@DEFOLMLB@bad?5size?5list@		; `string'
PUBLIC	??_C@_0BB@FOKGPEKG@bad?5code?5lengths@		; `string'
PUBLIC	??_C@_1KE@JGKPJEBO@?$AA?$CI?$AA?$CI?$AA?$CI?$AAj?$AA?9?$AA?$DO?$AAc?$AAo?$AAd?$AAe?$AA_?$AAb?$AAu?$AAf?$AAf@ ; `string'
PUBLIC	??_C@_0BB@IIMLINA@bad?5huffman?5code@		; `string'
PUBLIC	??_C@_09IFDKCGFO@bad?5delta@			; `string'
PUBLIC	??_C@_0BG@PJBJDAGM@can?8t?5merge?5dc?5and?5ac@	; `string'
PUBLIC	??_C@_0BA@KLNDOKJD@expected?5marker@		; `string'
PUBLIC	??_C@_0M@LPHNODCG@bad?5DRI?5len@		; `string'
PUBLIC	??_C@_0N@BOFJCHAP@bad?5DQT?5type@		; `string'
PUBLIC	??_C@_0O@CNHKKDIM@bad?5DQT?5table@		; `string'
PUBLIC	??_C@_0P@JLGKOCGN@bad?5DHT?5header@		; `string'
PUBLIC	??_C@_0M@CICAFFCH@bad?5COM?5len@		; `string'
PUBLIC	??_C@_0M@EENLKPDI@bad?5APP?5len@		; `string'
PUBLIC	??_C@_0P@NNGPHMMK@unknown?5marker@		; `string'
PUBLIC	??_C@_0BI@DHFJCMBA@bad?5SOS?5component?5count@	; `string'
PUBLIC	??_C@_0M@GNEHAHOH@bad?5SOS?5len@		; `string'
PUBLIC	??_C@_0M@NOCCBFAC@bad?5DC?5huff@		; `string'
PUBLIC	??_C@_0M@JGMCBLGG@bad?5AC?5huff@		; `string'
PUBLIC	??_C@_07EEJOMGGP@bad?5SOS@			; `string'
PUBLIC	??_C@_0M@DOFMJEMP@bad?5SOF?5len@		; `string'
PUBLIC	??_C@_0L@BCINMEBJ@only?58?9bit@			; `string'
PUBLIC	??_C@_0BB@LNEGOMA@no?5header?5height@		; `string'
PUBLIC	??_C@_07BIDACDEF@0?5width@			; `string'
PUBLIC	??_C@_09OJDLMMBJ@too?5large@			; `string'
PUBLIC	??_C@_0BE@DAPHADHL@bad?5component?5count@	; `string'
PUBLIC	??_C@_05BLPKENEJ@bad?5H@			; `string'
PUBLIC	??_C@_05MPLLHCJG@bad?5V@			; `string'
PUBLIC	??_C@_06LJIHDFHI@bad?5TQ@			; `string'
PUBLIC	??_C@_06CLMBLEP@no?5SOI@			; `string'
PUBLIC	??_C@_06IFCEAHIA@no?5SOF@			; `string'
PUBLIC	??_C@_0M@EPMOIECP@bad?5DNL?5len@		; `string'
PUBLIC	??_C@_0P@PNCLKCLJ@bad?5DNL?5height@		; `string'
PUBLIC	??_C@_0N@KBPNPPBJ@bad?5req_comp@		; `string'
PUBLIC	??_C@_1BG@HKNLHECB@?$AAb?$AAi?$AAt?$AAs?$AA?5?$AA?$DM?$AA?$DN?$AA?5?$AA1?$AA6@ ; `string'
PUBLIC	??_C@_09EOHLEIKL@bad?5sizes@			; `string'
PUBLIC	??_C@_0BA@MDNKOBMC@bad?5codelengths@		; `string'
PUBLIC	??_C@_0BE@IBFIPFO@output?5buffer?5limit@	; `string'
PUBLIC	??_C@_08DIAPIMGJ@bad?5dist@			; `string'
PUBLIC	??_C@_0N@IECDHMDI@zlib?5corrupt@		; `string'
PUBLIC	??_C@_0BB@PIPBCKIA@read?5past?5buffer@		; `string'
PUBLIC	??_C@_0BA@OBKOPAFL@bad?5zlib?5header@		; `string'
PUBLIC	??_C@_0P@DOGMHEBI@no?5preset?5dict@		; `string'
PUBLIC	??_C@_0BA@MCNBDLPD@bad?5compression@		; `string'
PUBLIC	??_C@_0M@DMDNBACF@bad?5png?5sig@		; `string'
PUBLIC	??_C@_1FC@ICDHLHK@?$AAo?$AAu?$AAt?$AA_?$AAn?$AA?5?$AA?$DN?$AA?$DN?$AA?5?$AAs?$AA?9?$AA?$DO?$AAi?$AAm?$AAg@ ; `string'
PUBLIC	??_C@_0BC@BHMPBBMG@not?5enough?5pixels@		; `string'
PUBLIC	??_C@_0P@FBBCPGMN@invalid?5filter@		; `string'
PUBLIC	??_C@_0O@MKGNGALN@invalid?5width@		; `string'
PUBLIC	??_C@_1CC@CPJBBDGC@?$AAi?$AAm?$AAg?$AA_?$AAn?$AA?$CL?$AA1?$AA?5?$AA?$DN?$AA?$DN?$AA?5?$AAo?$AAu?$AAt?$AA_@ ; `string'
PUBLIC	??_C@_1BG@FLOPDKAN@?$AAi?$AAm?$AAg?$AA_?$AAn?$AA?5?$AA?$DN?$AA?$DN?$AA?5?$AA3@ ; `string'
PUBLIC	??_C@_1DC@BMIDKOPK@?$AAo?$AAu?$AAt?$AA_?$AAn?$AA?5?$AA?$DN?$AA?$DN?$AA?5?$AA2?$AA?5?$AA?$HM?$AA?$HM?$AA?5?$AAo@ ; `string'
PUBLIC	??_C@_1CE@GKIDJEJM@?$AAs?$AA?9?$AA?$DO?$AAi?$AAm?$AAg?$AA_?$AAo?$AAu?$AAt?$AA_?$AAn?$AA?5?$AA?$DN?$AA?$DN@ ; `string'
PUBLIC	??_C@_0O@KBHBNJOK@multiple?5IHDR@		; `string'
PUBLIC	??_C@_0N@POJLKMKK@bad?5IHDR?5len@		; `string'
PUBLIC	??_C@_0BE@EJHIPKNO@1?12?14?18?116?9bit?5only@	; `string'
PUBLIC	??_C@_09MBBNGCKB@bad?5ctype@			; `string'
PUBLIC	??_C@_0BA@MDMBDDFG@bad?5comp?5method@		; `string'
PUBLIC	??_C@_0BC@GHLIKKMD@bad?5filter?5method@		; `string'
PUBLIC	??_C@_0BF@JCGDPBAA@bad?5interlace?5method@	; `string'
PUBLIC	??_C@_0O@FNFBHCOO@0?9pixel?5image@		; `string'
PUBLIC	??_C@_0P@JEAFOMAF@first?5not?5IHDR@		; `string'
PUBLIC	??_C@_0N@JCPAJAKB@invalid?5PLTE@		; `string'
PUBLIC	??_C@_0BA@PCPJHDKJ@tRNS?5after?5IDAT@		; `string'
PUBLIC	??_C@_0BB@CEDNNLBG@tRNS?5before?5PLTE@		; `string'
PUBLIC	??_C@_0N@KDLCCKCH@bad?5tRNS?5len@		; `string'
PUBLIC	??_C@_0BA@ENDPGCHB@tRNS?5with?5alpha@		; `string'
PUBLIC	??_C@_07CKIELOEH@no?5PLTE@			; `string'
PUBLIC	??_C@_0BA@PLHGLONG@IDAT?5size?5limit@		; `string'
PUBLIC	??_C@_09MNNCNKEO@outofdata@			; `string'
PUBLIC	??_C@_07MLPECBNA@no?5IDAT@			; `string'
PUBLIC	??_C@_0BF@NOEEEFMF@bad?5bits_per_channel@	; `string'
PUBLIC	??_C@_1BA@EKLGALLJ@?$AAv?$AA?5?$AA?$DM?$AA?5?$AA2?$AA5?$AA6@ ; `string'
PUBLIC	??_C@_1CO@LIFEKNEP@?$AAb?$AAi?$AAt?$AAs?$AA?5?$AA?$DO?$AA?$DN?$AA?5?$AA0?$AA?5?$AA?$CG?$AA?$CG?$AA?5?$AAb?$AAi@ ; `string'
PUBLIC	??_C@_07IANEBNLB@not?5BMP@			; `string'
PUBLIC	??_C@_07IEJCHBDI@bad?5BMP@			; `string'
PUBLIC	??_C@_0M@KHBIBJBG@unknown?5BMP@			; `string'
PUBLIC	??_C@_07IMHMNOIB@BMP?5RLE@			; `string'
PUBLIC	??_C@_0N@ODCBCBFN@BMP?5JPEG?1PNG@		; `string'
PUBLIC	??_C@_0L@PJHPAMCH@bad?5header@			; `string'
PUBLIC	??_C@_0L@JDPIFELH@bad?5offset@			; `string'
PUBLIC	??_C@_07MALOAKCI@invalid@			; `string'
PUBLIC	??_C@_07JNJHIMGH@bad?5bpp@			; `string'
PUBLIC	??_C@_09DAEBACAB@bad?5masks@			; `string'
PUBLIC	??_C@_0L@DMAPJJO@bad?5format@			; `string'
PUBLIC	??_C@_0M@ILLOCNCO@bad?5palette@			; `string'
PUBLIC	??_C@_1CK@GOOINIO@?$AAt?$AAg?$AAa?$AA_?$AAc?$AAo?$AAm?$AAp?$AA?5?$AA?$DN?$AA?$DN?$AA?5?$AAS?$AAT?$AAB@ ; `string'
PUBLIC	??_C@_07ECNCNLIK@not?5PSD@			; `string'
PUBLIC	??_C@_0O@CHBCDKKC@wrong?5version@		; `string'
PUBLIC	??_C@_0BE@PJBNGDBE@wrong?5channel?5count@	; `string'
PUBLIC	??_C@_0BG@NOLDLPP@unsupported?5bit?5depth@	; `string'
PUBLIC	??_C@_0BD@IOGGBMNK@wrong?5color?5format@	; `string'
PUBLIC	??_C@_07DPPMCAKL@corrupt@			; `string'
PUBLIC	??_C@_04KBFEPHFH@S?$IA?v4@			; `string'
PUBLIC	??_C@_04ELNJHLFH@PICT@				; `string'
PUBLIC	??_C@_08GGMBIFE@bad?5file@			; `string'
PUBLIC	??_C@_07KMJLPAII@not?5GIF@			; `string'
PUBLIC	??_C@_00CNPNBAHC@@				; `string'
PUBLIC	??_C@_0O@MGDACKOJ@no?5clear?5code@		; `string'
PUBLIC	??_C@_0P@GJNJCPDJ@too?5many?5codes@		; `string'
PUBLIC	??_C@_0BH@LOKBIIOJ@illegal?5code?5in?5raster@	; `string'
PUBLIC	??_C@_0BF@GIAALCNJ@bad?5Image?5Descriptor@	; `string'
PUBLIC	??_C@_0BE@NAMJKDNF@missing?5color?5table@	; `string'
PUBLIC	??_C@_0N@DJABBOOH@unknown?5code@		; `string'
PUBLIC	??_C@_0M@HOIDFNFN@?$CD?$DPRADIANCE?6@		; `string'
PUBLIC	??_C@_07KFDJIKCK@?$CD?$DPRGBE?6@		; `string'
PUBLIC	??_C@_0L@NCPEAJBD@?$CD?$DPRADIANCE@		; `string'
PUBLIC	??_C@_06NDOKKIDJ@?$CD?$DPRGBE@			; `string'
PUBLIC	??_C@_07NCIOKENI@not?5HDR@			; `string'
PUBLIC	??_C@_0BH@JFGBLLKC@FORMAT?$DN32?9bit_rle_rgbe@	; `string'
PUBLIC	??_C@_0BD@NKJFFLKL@unsupported?5format@		; `string'
PUBLIC	??_C@_03HKAKGGJN@?9Y?5@				; `string'
PUBLIC	??_C@_0BI@DCNDPIOH@unsupported?5data?5layout@	; `string'
PUBLIC	??_C@_03FOKDFDHG@?$CLX?5@			; `string'
PUBLIC	??_C@_0CA@JBEOCDFN@invalid?5decoded?5scanline?5length@ ; `string'
PUBLIC	??_C@_07IDKIDMGJ@bad?5PNM@			; `string'
PUBLIC	??_C@_0BH@OBINMOBC@integer?5parse?5overflow@	; `string'
PUBLIC	??_C@_0BC@CNFMOKHC@max?5value?5?$DO?565535@	; `string'
PUBLIC	frameMap
PUBLIC	locMap
EXTRN	__imp__wassert:PROC
EXTRN	__imp_fread:PROC
EXTRN	__imp_feof:PROC
EXTRN	__imp_ungetc:PROC
EXTRN	__imp_free:PROC
EXTRN	__imp_ldexp:PROC
EXTRN	__imp_strtol:PROC
EXTRN	__imp_fopen_s:PROC
EXTRN	__imp_strncmp:PROC
EXTRN	__imp___glewGetUniformLocation:QWORD
EXTRN	__imp_fgetc:PROC
EXTRN	__imp_fseek:PROC
EXTRN	__imp_realloc:PROC
EXTRN	__imp_fclose:PROC
EXTRN	__imp_ferror:PROC
EXTRN	__imp_ftell:PROC
uintMap	DQ	01H DUP (?)
frameMap DQ	064H DUP (?)
COMM	enemyDamage:QWORD
locMap	DQ	064H DUP (?)
COMM	monkHBNodes:QWORD
COMM	enemyHBs:QWORD
COMM	monkTakenDmg:QWORD
_DATA	ENDS
;	COMDAT ??_C@_0BC@CNFMOKHC@max?5value?5?$DO?565535@
CONST	SEGMENT
??_C@_0BC@CNFMOKHC@max?5value?5?$DO?565535@ DB 'max value > 65535', 00H ; `string'
CONST	ENDS
;	COMDAT ??_C@_0BH@OBINMOBC@integer?5parse?5overflow@
CONST	SEGMENT
??_C@_0BH@OBINMOBC@integer?5parse?5overflow@ DB 'integer parse overflow', 00H ; `string'
CONST	ENDS
;	COMDAT ??_C@_07IDKIDMGJ@bad?5PNM@
CONST	SEGMENT
??_C@_07IDKIDMGJ@bad?5PNM@ DB 'bad PNM', 00H		; `string'
CONST	ENDS
;	COMDAT ??_C@_0CA@JBEOCDFN@invalid?5decoded?5scanline?5length@
CONST	SEGMENT
??_C@_0CA@JBEOCDFN@invalid?5decoded?5scanline?5length@ DB 'invalid decode'
	DB	'd scanline length', 00H			; `string'
CONST	ENDS
;	COMDAT ??_C@_03FOKDFDHG@?$CLX?5@
CONST	SEGMENT
??_C@_03FOKDFDHG@?$CLX?5@ DB '+X ', 00H			; `string'
CONST	ENDS
;	COMDAT ??_C@_0BI@DCNDPIOH@unsupported?5data?5layout@
CONST	SEGMENT
??_C@_0BI@DCNDPIOH@unsupported?5data?5layout@ DB 'unsupported data layout'
	DB	00H						; `string'
CONST	ENDS
;	COMDAT ??_C@_03HKAKGGJN@?9Y?5@
CONST	SEGMENT
??_C@_03HKAKGGJN@?9Y?5@ DB '-Y ', 00H			; `string'
CONST	ENDS
;	COMDAT ??_C@_0BD@NKJFFLKL@unsupported?5format@
CONST	SEGMENT
??_C@_0BD@NKJFFLKL@unsupported?5format@ DB 'unsupported format', 00H ; `string'
CONST	ENDS
;	COMDAT ??_C@_0BH@JFGBLLKC@FORMAT?$DN32?9bit_rle_rgbe@
CONST	SEGMENT
??_C@_0BH@JFGBLLKC@FORMAT?$DN32?9bit_rle_rgbe@ DB 'FORMAT=32-bit_rle_rgbe'
	DB	00H						; `string'
CONST	ENDS
;	COMDAT ??_C@_07NCIOKENI@not?5HDR@
CONST	SEGMENT
??_C@_07NCIOKENI@not?5HDR@ DB 'not HDR', 00H		; `string'
CONST	ENDS
;	COMDAT ??_C@_06NDOKKIDJ@?$CD?$DPRGBE@
CONST	SEGMENT
??_C@_06NDOKKIDJ@?$CD?$DPRGBE@ DB '#?RGBE', 00H		; `string'
CONST	ENDS
;	COMDAT ??_C@_0L@NCPEAJBD@?$CD?$DPRADIANCE@
CONST	SEGMENT
??_C@_0L@NCPEAJBD@?$CD?$DPRADIANCE@ DB '#?RADIANCE', 00H ; `string'
CONST	ENDS
;	COMDAT ??_C@_07KFDJIKCK@?$CD?$DPRGBE?6@
CONST	SEGMENT
??_C@_07KFDJIKCK@?$CD?$DPRGBE?6@ DB '#?RGBE', 0aH, 00H	; `string'
CONST	ENDS
;	COMDAT ??_C@_0M@HOIDFNFN@?$CD?$DPRADIANCE?6@
CONST	SEGMENT
??_C@_0M@HOIDFNFN@?$CD?$DPRADIANCE?6@ DB '#?RADIANCE', 0aH, 00H ; `string'
CONST	ENDS
;	COMDAT ??_C@_0N@DJABBOOH@unknown?5code@
CONST	SEGMENT
??_C@_0N@DJABBOOH@unknown?5code@ DB 'unknown code', 00H	; `string'
CONST	ENDS
;	COMDAT ??_C@_0BE@NAMJKDNF@missing?5color?5table@
CONST	SEGMENT
??_C@_0BE@NAMJKDNF@missing?5color?5table@ DB 'missing color table', 00H ; `string'
CONST	ENDS
;	COMDAT ??_C@_0BF@GIAALCNJ@bad?5Image?5Descriptor@
CONST	SEGMENT
??_C@_0BF@GIAALCNJ@bad?5Image?5Descriptor@ DB 'bad Image Descriptor', 00H ; `string'
CONST	ENDS
;	COMDAT ??_C@_0BH@LOKBIIOJ@illegal?5code?5in?5raster@
CONST	SEGMENT
??_C@_0BH@LOKBIIOJ@illegal?5code?5in?5raster@ DB 'illegal code in raster', 00H ; `string'
CONST	ENDS
;	COMDAT ??_C@_0P@GJNJCPDJ@too?5many?5codes@
CONST	SEGMENT
??_C@_0P@GJNJCPDJ@too?5many?5codes@ DB 'too many codes', 00H ; `string'
CONST	ENDS
;	COMDAT ??_C@_0O@MGDACKOJ@no?5clear?5code@
CONST	SEGMENT
??_C@_0O@MGDACKOJ@no?5clear?5code@ DB 'no clear code', 00H ; `string'
CONST	ENDS
;	COMDAT ??_C@_00CNPNBAHC@@
CONST	SEGMENT
??_C@_00CNPNBAHC@@ DB 00H				; `string'
CONST	ENDS
;	COMDAT ??_C@_07KMJLPAII@not?5GIF@
CONST	SEGMENT
??_C@_07KMJLPAII@not?5GIF@ DB 'not GIF', 00H		; `string'
CONST	ENDS
;	COMDAT ??_C@_08GGMBIFE@bad?5file@
CONST	SEGMENT
??_C@_08GGMBIFE@bad?5file@ DB 'bad file', 00H		; `string'
CONST	ENDS
;	COMDAT ??_C@_04ELNJHLFH@PICT@
CONST	SEGMENT
??_C@_04ELNJHLFH@PICT@ DB 'PICT', 00H			; `string'
CONST	ENDS
;	COMDAT ??_C@_04KBFEPHFH@S?$IA?v4@
CONST	SEGMENT
??_C@_04KBFEPHFH@S?$IA?v4@ DB 'S', 080H, 0f6H, '4', 00H	; `string'
CONST	ENDS
;	COMDAT ??_C@_07DPPMCAKL@corrupt@
CONST	SEGMENT
??_C@_07DPPMCAKL@corrupt@ DB 'corrupt', 00H		; `string'
CONST	ENDS
;	COMDAT ??_C@_0BD@IOGGBMNK@wrong?5color?5format@
CONST	SEGMENT
??_C@_0BD@IOGGBMNK@wrong?5color?5format@ DB 'wrong color format', 00H ; `string'
CONST	ENDS
;	COMDAT ??_C@_0BG@NOLDLPP@unsupported?5bit?5depth@
CONST	SEGMENT
??_C@_0BG@NOLDLPP@unsupported?5bit?5depth@ DB 'unsupported bit depth', 00H ; `string'
CONST	ENDS
;	COMDAT ??_C@_0BE@PJBNGDBE@wrong?5channel?5count@
CONST	SEGMENT
??_C@_0BE@PJBNGDBE@wrong?5channel?5count@ DB 'wrong channel count', 00H ; `string'
CONST	ENDS
;	COMDAT ??_C@_0O@CHBCDKKC@wrong?5version@
CONST	SEGMENT
??_C@_0O@CHBCDKKC@wrong?5version@ DB 'wrong version', 00H ; `string'
CONST	ENDS
;	COMDAT ??_C@_07ECNCNLIK@not?5PSD@
CONST	SEGMENT
??_C@_07ECNCNLIK@not?5PSD@ DB 'not PSD', 00H		; `string'
CONST	ENDS
;	COMDAT ??_C@_1CK@GOOINIO@?$AAt?$AAg?$AAa?$AA_?$AAc?$AAo?$AAm?$AAp?$AA?5?$AA?$DN?$AA?$DN?$AA?5?$AAS?$AAT?$AAB@
CONST	SEGMENT
??_C@_1CK@GOOINIO@?$AAt?$AAg?$AAa?$AA_?$AAc?$AAo?$AAm?$AAp?$AA?5?$AA?$DN?$AA?$DN?$AA?5?$AAS?$AAT?$AAB@ DB 't'
	DB	00H, 'g', 00H, 'a', 00H, '_', 00H, 'c', 00H, 'o', 00H, 'm', 00H
	DB	'p', 00H, ' ', 00H, '=', 00H, '=', 00H, ' ', 00H, 'S', 00H, 'T'
	DB	00H, 'B', 00H, 'I', 00H, '_', 00H, 'r', 00H, 'g', 00H, 'b', 00H
	DB	00H, 00H					; `string'
CONST	ENDS
;	COMDAT ??_C@_0M@ILLOCNCO@bad?5palette@
CONST	SEGMENT
??_C@_0M@ILLOCNCO@bad?5palette@ DB 'bad palette', 00H	; `string'
CONST	ENDS
;	COMDAT ??_C@_0L@DMAPJJO@bad?5format@
CONST	SEGMENT
??_C@_0L@DMAPJJO@bad?5format@ DB 'bad format', 00H	; `string'
CONST	ENDS
;	COMDAT ??_C@_09DAEBACAB@bad?5masks@
CONST	SEGMENT
??_C@_09DAEBACAB@bad?5masks@ DB 'bad masks', 00H	; `string'
CONST	ENDS
;	COMDAT ??_C@_07JNJHIMGH@bad?5bpp@
CONST	SEGMENT
??_C@_07JNJHIMGH@bad?5bpp@ DB 'bad bpp', 00H		; `string'
CONST	ENDS
;	COMDAT ??_C@_07MALOAKCI@invalid@
CONST	SEGMENT
??_C@_07MALOAKCI@invalid@ DB 'invalid', 00H		; `string'
CONST	ENDS
;	COMDAT ??_C@_0L@JDPIFELH@bad?5offset@
CONST	SEGMENT
??_C@_0L@JDPIFELH@bad?5offset@ DB 'bad offset', 00H	; `string'
CONST	ENDS
;	COMDAT ??_C@_0L@PJHPAMCH@bad?5header@
CONST	SEGMENT
??_C@_0L@PJHPAMCH@bad?5header@ DB 'bad header', 00H	; `string'
CONST	ENDS
;	COMDAT ??_C@_0N@ODCBCBFN@BMP?5JPEG?1PNG@
CONST	SEGMENT
??_C@_0N@ODCBCBFN@BMP?5JPEG?1PNG@ DB 'BMP JPEG/PNG', 00H ; `string'
CONST	ENDS
;	COMDAT ??_C@_07IMHMNOIB@BMP?5RLE@
CONST	SEGMENT
??_C@_07IMHMNOIB@BMP?5RLE@ DB 'BMP RLE', 00H		; `string'
CONST	ENDS
;	COMDAT ??_C@_0M@KHBIBJBG@unknown?5BMP@
CONST	SEGMENT
??_C@_0M@KHBIBJBG@unknown?5BMP@ DB 'unknown BMP', 00H	; `string'
CONST	ENDS
;	COMDAT ??_C@_07IEJCHBDI@bad?5BMP@
CONST	SEGMENT
??_C@_07IEJCHBDI@bad?5BMP@ DB 'bad BMP', 00H		; `string'
CONST	ENDS
;	COMDAT ??_C@_07IANEBNLB@not?5BMP@
CONST	SEGMENT
??_C@_07IANEBNLB@not?5BMP@ DB 'not BMP', 00H		; `string'
CONST	ENDS
;	COMDAT ??_C@_1CO@LIFEKNEP@?$AAb?$AAi?$AAt?$AAs?$AA?5?$AA?$DO?$AA?$DN?$AA?5?$AA0?$AA?5?$AA?$CG?$AA?$CG?$AA?5?$AAb?$AAi@
CONST	SEGMENT
??_C@_1CO@LIFEKNEP@?$AAb?$AAi?$AAt?$AAs?$AA?5?$AA?$DO?$AA?$DN?$AA?5?$AA0?$AA?5?$AA?$CG?$AA?$CG?$AA?5?$AAb?$AAi@ DB 'b'
	DB	00H, 'i', 00H, 't', 00H, 's', 00H, ' ', 00H, '>', 00H, '=', 00H
	DB	' ', 00H, '0', 00H, ' ', 00H, '&', 00H, '&', 00H, ' ', 00H, 'b'
	DB	00H, 'i', 00H, 't', 00H, 's', 00H, ' ', 00H, '<', 00H, '=', 00H
	DB	' ', 00H, '8', 00H, 00H, 00H			; `string'
CONST	ENDS
;	COMDAT ??_C@_1BA@EKLGALLJ@?$AAv?$AA?5?$AA?$DM?$AA?5?$AA2?$AA5?$AA6@
CONST	SEGMENT
??_C@_1BA@EKLGALLJ@?$AAv?$AA?5?$AA?$DM?$AA?5?$AA2?$AA5?$AA6@ DB 'v', 00H, ' '
	DB	00H, '<', 00H, ' ', 00H, '2', 00H, '5', 00H, '6', 00H, 00H, 00H ; `string'
CONST	ENDS
;	COMDAT ??_C@_0BF@NOEEEFMF@bad?5bits_per_channel@
CONST	SEGMENT
??_C@_0BF@NOEEEFMF@bad?5bits_per_channel@ DB 'bad bits_per_channel', 00H ; `string'
CONST	ENDS
;	COMDAT ??_C@_07MLPECBNA@no?5IDAT@
CONST	SEGMENT
??_C@_07MLPECBNA@no?5IDAT@ DB 'no IDAT', 00H		; `string'
CONST	ENDS
;	COMDAT ??_C@_09MNNCNKEO@outofdata@
CONST	SEGMENT
??_C@_09MNNCNKEO@outofdata@ DB 'outofdata', 00H		; `string'
CONST	ENDS
;	COMDAT ??_C@_0BA@PLHGLONG@IDAT?5size?5limit@
CONST	SEGMENT
??_C@_0BA@PLHGLONG@IDAT?5size?5limit@ DB 'IDAT size limit', 00H ; `string'
CONST	ENDS
;	COMDAT ??_C@_07CKIELOEH@no?5PLTE@
CONST	SEGMENT
??_C@_07CKIELOEH@no?5PLTE@ DB 'no PLTE', 00H		; `string'
CONST	ENDS
;	COMDAT ??_C@_0BA@ENDPGCHB@tRNS?5with?5alpha@
CONST	SEGMENT
??_C@_0BA@ENDPGCHB@tRNS?5with?5alpha@ DB 'tRNS with alpha', 00H ; `string'
CONST	ENDS
;	COMDAT ??_C@_0N@KDLCCKCH@bad?5tRNS?5len@
CONST	SEGMENT
??_C@_0N@KDLCCKCH@bad?5tRNS?5len@ DB 'bad tRNS len', 00H ; `string'
CONST	ENDS
;	COMDAT ??_C@_0BB@CEDNNLBG@tRNS?5before?5PLTE@
CONST	SEGMENT
??_C@_0BB@CEDNNLBG@tRNS?5before?5PLTE@ DB 'tRNS before PLTE', 00H ; `string'
CONST	ENDS
;	COMDAT ??_C@_0BA@PCPJHDKJ@tRNS?5after?5IDAT@
CONST	SEGMENT
??_C@_0BA@PCPJHDKJ@tRNS?5after?5IDAT@ DB 'tRNS after IDAT', 00H ; `string'
CONST	ENDS
;	COMDAT ??_C@_0N@JCPAJAKB@invalid?5PLTE@
CONST	SEGMENT
??_C@_0N@JCPAJAKB@invalid?5PLTE@ DB 'invalid PLTE', 00H	; `string'
CONST	ENDS
;	COMDAT ??_C@_0P@JEAFOMAF@first?5not?5IHDR@
CONST	SEGMENT
??_C@_0P@JEAFOMAF@first?5not?5IHDR@ DB 'first not IHDR', 00H ; `string'
CONST	ENDS
;	COMDAT ??_C@_0O@FNFBHCOO@0?9pixel?5image@
CONST	SEGMENT
??_C@_0O@FNFBHCOO@0?9pixel?5image@ DB '0-pixel image', 00H ; `string'
CONST	ENDS
;	COMDAT ??_C@_0BF@JCGDPBAA@bad?5interlace?5method@
CONST	SEGMENT
??_C@_0BF@JCGDPBAA@bad?5interlace?5method@ DB 'bad interlace method', 00H ; `string'
CONST	ENDS
;	COMDAT ??_C@_0BC@GHLIKKMD@bad?5filter?5method@
CONST	SEGMENT
??_C@_0BC@GHLIKKMD@bad?5filter?5method@ DB 'bad filter method', 00H ; `string'
CONST	ENDS
;	COMDAT ??_C@_0BA@MDMBDDFG@bad?5comp?5method@
CONST	SEGMENT
??_C@_0BA@MDMBDDFG@bad?5comp?5method@ DB 'bad comp method', 00H ; `string'
CONST	ENDS
;	COMDAT ??_C@_09MBBNGCKB@bad?5ctype@
CONST	SEGMENT
??_C@_09MBBNGCKB@bad?5ctype@ DB 'bad ctype', 00H	; `string'
CONST	ENDS
;	COMDAT ??_C@_0BE@EJHIPKNO@1?12?14?18?116?9bit?5only@
CONST	SEGMENT
??_C@_0BE@EJHIPKNO@1?12?14?18?116?9bit?5only@ DB '1/2/4/8/16-bit only', 00H ; `string'
CONST	ENDS
;	COMDAT ??_C@_0N@POJLKMKK@bad?5IHDR?5len@
CONST	SEGMENT
??_C@_0N@POJLKMKK@bad?5IHDR?5len@ DB 'bad IHDR len', 00H ; `string'
CONST	ENDS
;	COMDAT ??_C@_0O@KBHBNJOK@multiple?5IHDR@
CONST	SEGMENT
??_C@_0O@KBHBNJOK@multiple?5IHDR@ DB 'multiple IHDR', 00H ; `string'
CONST	ENDS
;	COMDAT ??_C@_1CE@GKIDJEJM@?$AAs?$AA?9?$AA?$DO?$AAi?$AAm?$AAg?$AA_?$AAo?$AAu?$AAt?$AA_?$AAn?$AA?5?$AA?$DN?$AA?$DN@
CONST	SEGMENT
??_C@_1CE@GKIDJEJM@?$AAs?$AA?9?$AA?$DO?$AAi?$AAm?$AAg?$AA_?$AAo?$AAu?$AAt?$AA_?$AAn?$AA?5?$AA?$DN?$AA?$DN@ DB 's'
	DB	00H, '-', 00H, '>', 00H, 'i', 00H, 'm', 00H, 'g', 00H, '_', 00H
	DB	'o', 00H, 'u', 00H, 't', 00H, '_', 00H, 'n', 00H, ' ', 00H, '='
	DB	00H, '=', 00H, ' ', 00H, '4', 00H, 00H, 00H	; `string'
CONST	ENDS
;	COMDAT ??_C@_1DC@BMIDKOPK@?$AAo?$AAu?$AAt?$AA_?$AAn?$AA?5?$AA?$DN?$AA?$DN?$AA?5?$AA2?$AA?5?$AA?$HM?$AA?$HM?$AA?5?$AAo@
CONST	SEGMENT
??_C@_1DC@BMIDKOPK@?$AAo?$AAu?$AAt?$AA_?$AAn?$AA?5?$AA?$DN?$AA?$DN?$AA?5?$AA2?$AA?5?$AA?$HM?$AA?$HM?$AA?5?$AAo@ DB 'o'
	DB	00H, 'u', 00H, 't', 00H, '_', 00H, 'n', 00H, ' ', 00H, '=', 00H
	DB	'=', 00H, ' ', 00H, '2', 00H, ' ', 00H, '|', 00H, '|', 00H, ' '
	DB	00H, 'o', 00H, 'u', 00H, 't', 00H, '_', 00H, 'n', 00H, ' ', 00H
	DB	'=', 00H, '=', 00H, ' ', 00H, '4', 00H, 00H, 00H ; `string'
CONST	ENDS
;	COMDAT ??_C@_1BG@FLOPDKAN@?$AAi?$AAm?$AAg?$AA_?$AAn?$AA?5?$AA?$DN?$AA?$DN?$AA?5?$AA3@
CONST	SEGMENT
??_C@_1BG@FLOPDKAN@?$AAi?$AAm?$AAg?$AA_?$AAn?$AA?5?$AA?$DN?$AA?$DN?$AA?5?$AA3@ DB 'i'
	DB	00H, 'm', 00H, 'g', 00H, '_', 00H, 'n', 00H, ' ', 00H, '=', 00H
	DB	'=', 00H, ' ', 00H, '3', 00H, 00H, 00H	; `string'
CONST	ENDS
;	COMDAT ??_C@_1CC@CPJBBDGC@?$AAi?$AAm?$AAg?$AA_?$AAn?$AA?$CL?$AA1?$AA?5?$AA?$DN?$AA?$DN?$AA?5?$AAo?$AAu?$AAt?$AA_@
CONST	SEGMENT
??_C@_1CC@CPJBBDGC@?$AAi?$AAm?$AAg?$AA_?$AAn?$AA?$CL?$AA1?$AA?5?$AA?$DN?$AA?$DN?$AA?5?$AAo?$AAu?$AAt?$AA_@ DB 'i'
	DB	00H, 'm', 00H, 'g', 00H, '_', 00H, 'n', 00H, '+', 00H, '1', 00H
	DB	' ', 00H, '=', 00H, '=', 00H, ' ', 00H, 'o', 00H, 'u', 00H, 't'
	DB	00H, '_', 00H, 'n', 00H, 00H, 00H		; `string'
CONST	ENDS
;	COMDAT ??_C@_0O@MKGNGALN@invalid?5width@
CONST	SEGMENT
??_C@_0O@MKGNGALN@invalid?5width@ DB 'invalid width', 00H ; `string'
CONST	ENDS
;	COMDAT ??_C@_0P@FBBCPGMN@invalid?5filter@
CONST	SEGMENT
??_C@_0P@FBBCPGMN@invalid?5filter@ DB 'invalid filter', 00H ; `string'
CONST	ENDS
;	COMDAT ??_C@_0BC@BHMPBBMG@not?5enough?5pixels@
CONST	SEGMENT
??_C@_0BC@BHMPBBMG@not?5enough?5pixels@ DB 'not enough pixels', 00H ; `string'
CONST	ENDS
;	COMDAT ??_C@_1FC@ICDHLHK@?$AAo?$AAu?$AAt?$AA_?$AAn?$AA?5?$AA?$DN?$AA?$DN?$AA?5?$AAs?$AA?9?$AA?$DO?$AAi?$AAm?$AAg@
CONST	SEGMENT
??_C@_1FC@ICDHLHK@?$AAo?$AAu?$AAt?$AA_?$AAn?$AA?5?$AA?$DN?$AA?$DN?$AA?5?$AAs?$AA?9?$AA?$DO?$AAi?$AAm?$AAg@ DB 'o'
	DB	00H, 'u', 00H, 't', 00H, '_', 00H, 'n', 00H, ' ', 00H, '=', 00H
	DB	'=', 00H, ' ', 00H, 's', 00H, '-', 00H, '>', 00H, 'i', 00H, 'm'
	DB	00H, 'g', 00H, '_', 00H, 'n', 00H, ' ', 00H, '|', 00H, '|', 00H
	DB	' ', 00H, 'o', 00H, 'u', 00H, 't', 00H, '_', 00H, 'n', 00H, ' '
	DB	00H, '=', 00H, '=', 00H, ' ', 00H, 's', 00H, '-', 00H, '>', 00H
	DB	'i', 00H, 'm', 00H, 'g', 00H, '_', 00H, 'n', 00H, '+', 00H, '1'
	DB	00H, 00H, 00H				; `string'
CONST	ENDS
;	COMDAT ??_C@_0M@DMDNBACF@bad?5png?5sig@
CONST	SEGMENT
??_C@_0M@DMDNBACF@bad?5png?5sig@ DB 'bad png sig', 00H	; `string'
CONST	ENDS
;	COMDAT ??_C@_0BA@MCNBDLPD@bad?5compression@
CONST	SEGMENT
??_C@_0BA@MCNBDLPD@bad?5compression@ DB 'bad compression', 00H ; `string'
CONST	ENDS
;	COMDAT ??_C@_0P@DOGMHEBI@no?5preset?5dict@
CONST	SEGMENT
??_C@_0P@DOGMHEBI@no?5preset?5dict@ DB 'no preset dict', 00H ; `string'
CONST	ENDS
;	COMDAT ??_C@_0BA@OBKOPAFL@bad?5zlib?5header@
CONST	SEGMENT
??_C@_0BA@OBKOPAFL@bad?5zlib?5header@ DB 'bad zlib header', 00H ; `string'
CONST	ENDS
;	COMDAT ??_C@_0BB@PIPBCKIA@read?5past?5buffer@
CONST	SEGMENT
??_C@_0BB@PIPBCKIA@read?5past?5buffer@ DB 'read past buffer', 00H ; `string'
CONST	ENDS
;	COMDAT ??_C@_0N@IECDHMDI@zlib?5corrupt@
CONST	SEGMENT
??_C@_0N@IECDHMDI@zlib?5corrupt@ DB 'zlib corrupt', 00H	; `string'
CONST	ENDS
;	COMDAT ??_C@_08DIAPIMGJ@bad?5dist@
CONST	SEGMENT
??_C@_08DIAPIMGJ@bad?5dist@ DB 'bad dist', 00H		; `string'
CONST	ENDS
;	COMDAT ??_C@_0BE@IBFIPFO@output?5buffer?5limit@
CONST	SEGMENT
??_C@_0BE@IBFIPFO@output?5buffer?5limit@ DB 'output buffer limit', 00H ; `string'
CONST	ENDS
;	COMDAT ??_C@_0BA@MDNKOBMC@bad?5codelengths@
CONST	SEGMENT
??_C@_0BA@MDNKOBMC@bad?5codelengths@ DB 'bad codelengths', 00H ; `string'
CONST	ENDS
;	COMDAT ??_C@_09EOHLEIKL@bad?5sizes@
CONST	SEGMENT
??_C@_09EOHLEIKL@bad?5sizes@ DB 'bad sizes', 00H	; `string'
CONST	ENDS
;	COMDAT ??_C@_1BG@HKNLHECB@?$AAb?$AAi?$AAt?$AAs?$AA?5?$AA?$DM?$AA?$DN?$AA?5?$AA1?$AA6@
CONST	SEGMENT
??_C@_1BG@HKNLHECB@?$AAb?$AAi?$AAt?$AAs?$AA?5?$AA?$DM?$AA?$DN?$AA?5?$AA1?$AA6@ DB 'b'
	DB	00H, 'i', 00H, 't', 00H, 's', 00H, ' ', 00H, '<', 00H, '=', 00H
	DB	' ', 00H, '1', 00H, '6', 00H, 00H, 00H	; `string'
CONST	ENDS
;	COMDAT ??_C@_0N@KBPNPPBJ@bad?5req_comp@
CONST	SEGMENT
??_C@_0N@KBPNPPBJ@bad?5req_comp@ DB 'bad req_comp', 00H	; `string'
CONST	ENDS
;	COMDAT ??_C@_0P@PNCLKCLJ@bad?5DNL?5height@
CONST	SEGMENT
??_C@_0P@PNCLKCLJ@bad?5DNL?5height@ DB 'bad DNL height', 00H ; `string'
CONST	ENDS
;	COMDAT ??_C@_0M@EPMOIECP@bad?5DNL?5len@
CONST	SEGMENT
??_C@_0M@EPMOIECP@bad?5DNL?5len@ DB 'bad DNL len', 00H	; `string'
CONST	ENDS
;	COMDAT ??_C@_06IFCEAHIA@no?5SOF@
CONST	SEGMENT
??_C@_06IFCEAHIA@no?5SOF@ DB 'no SOF', 00H		; `string'
CONST	ENDS
;	COMDAT ??_C@_06CLMBLEP@no?5SOI@
CONST	SEGMENT
??_C@_06CLMBLEP@no?5SOI@ DB 'no SOI', 00H		; `string'
CONST	ENDS
;	COMDAT ??_C@_06LJIHDFHI@bad?5TQ@
CONST	SEGMENT
??_C@_06LJIHDFHI@bad?5TQ@ DB 'bad TQ', 00H		; `string'
CONST	ENDS
;	COMDAT ??_C@_05MPLLHCJG@bad?5V@
CONST	SEGMENT
??_C@_05MPLLHCJG@bad?5V@ DB 'bad V', 00H		; `string'
CONST	ENDS
;	COMDAT ??_C@_05BLPKENEJ@bad?5H@
CONST	SEGMENT
??_C@_05BLPKENEJ@bad?5H@ DB 'bad H', 00H		; `string'
CONST	ENDS
;	COMDAT ??_C@_0BE@DAPHADHL@bad?5component?5count@
CONST	SEGMENT
??_C@_0BE@DAPHADHL@bad?5component?5count@ DB 'bad component count', 00H ; `string'
CONST	ENDS
;	COMDAT ??_C@_09OJDLMMBJ@too?5large@
CONST	SEGMENT
??_C@_09OJDLMMBJ@too?5large@ DB 'too large', 00H	; `string'
CONST	ENDS
;	COMDAT ??_C@_07BIDACDEF@0?5width@
CONST	SEGMENT
??_C@_07BIDACDEF@0?5width@ DB '0 width', 00H		; `string'
CONST	ENDS
;	COMDAT ??_C@_0BB@LNEGOMA@no?5header?5height@
CONST	SEGMENT
??_C@_0BB@LNEGOMA@no?5header?5height@ DB 'no header height', 00H ; `string'
CONST	ENDS
;	COMDAT ??_C@_0L@BCINMEBJ@only?58?9bit@
CONST	SEGMENT
??_C@_0L@BCINMEBJ@only?58?9bit@ DB 'only 8-bit', 00H	; `string'
CONST	ENDS
;	COMDAT ??_C@_0M@DOFMJEMP@bad?5SOF?5len@
CONST	SEGMENT
??_C@_0M@DOFMJEMP@bad?5SOF?5len@ DB 'bad SOF len', 00H	; `string'
CONST	ENDS
;	COMDAT ??_C@_07EEJOMGGP@bad?5SOS@
CONST	SEGMENT
??_C@_07EEJOMGGP@bad?5SOS@ DB 'bad SOS', 00H		; `string'
CONST	ENDS
;	COMDAT ??_C@_0M@JGMCBLGG@bad?5AC?5huff@
CONST	SEGMENT
??_C@_0M@JGMCBLGG@bad?5AC?5huff@ DB 'bad AC huff', 00H	; `string'
CONST	ENDS
;	COMDAT ??_C@_0M@NOCCBFAC@bad?5DC?5huff@
CONST	SEGMENT
??_C@_0M@NOCCBFAC@bad?5DC?5huff@ DB 'bad DC huff', 00H	; `string'
CONST	ENDS
;	COMDAT ??_C@_0M@GNEHAHOH@bad?5SOS?5len@
CONST	SEGMENT
??_C@_0M@GNEHAHOH@bad?5SOS?5len@ DB 'bad SOS len', 00H	; `string'
CONST	ENDS
;	COMDAT ??_C@_0BI@DHFJCMBA@bad?5SOS?5component?5count@
CONST	SEGMENT
??_C@_0BI@DHFJCMBA@bad?5SOS?5component?5count@ DB 'bad SOS component coun'
	DB	't', 00H					; `string'
CONST	ENDS
;	COMDAT ??_C@_0P@NNGPHMMK@unknown?5marker@
CONST	SEGMENT
??_C@_0P@NNGPHMMK@unknown?5marker@ DB 'unknown marker', 00H ; `string'
CONST	ENDS
;	COMDAT ??_C@_0M@EENLKPDI@bad?5APP?5len@
CONST	SEGMENT
??_C@_0M@EENLKPDI@bad?5APP?5len@ DB 'bad APP len', 00H	; `string'
CONST	ENDS
;	COMDAT ??_C@_0M@CICAFFCH@bad?5COM?5len@
CONST	SEGMENT
??_C@_0M@CICAFFCH@bad?5COM?5len@ DB 'bad COM len', 00H	; `string'
CONST	ENDS
;	COMDAT ??_C@_0P@JLGKOCGN@bad?5DHT?5header@
CONST	SEGMENT
??_C@_0P@JLGKOCGN@bad?5DHT?5header@ DB 'bad DHT header', 00H ; `string'
CONST	ENDS
;	COMDAT ??_C@_0O@CNHKKDIM@bad?5DQT?5table@
CONST	SEGMENT
??_C@_0O@CNHKKDIM@bad?5DQT?5table@ DB 'bad DQT table', 00H ; `string'
CONST	ENDS
;	COMDAT ??_C@_0N@BOFJCHAP@bad?5DQT?5type@
CONST	SEGMENT
??_C@_0N@BOFJCHAP@bad?5DQT?5type@ DB 'bad DQT type', 00H ; `string'
CONST	ENDS
;	COMDAT ??_C@_0M@LPHNODCG@bad?5DRI?5len@
CONST	SEGMENT
??_C@_0M@LPHNODCG@bad?5DRI?5len@ DB 'bad DRI len', 00H	; `string'
CONST	ENDS
;	COMDAT ??_C@_0BA@KLNDOKJD@expected?5marker@
CONST	SEGMENT
??_C@_0BA@KLNDOKJD@expected?5marker@ DB 'expected marker', 00H ; `string'
CONST	ENDS
;	COMDAT ??_C@_0BG@PJBJDAGM@can?8t?5merge?5dc?5and?5ac@
CONST	SEGMENT
??_C@_0BG@PJBJDAGM@can?8t?5merge?5dc?5and?5ac@ DB 'can''t merge dc and ac'
	DB	00H						; `string'
CONST	ENDS
;	COMDAT ??_C@_09IFDKCGFO@bad?5delta@
CONST	SEGMENT
??_C@_09IFDKCGFO@bad?5delta@ DB 'bad delta', 00H	; `string'
CONST	ENDS
;	COMDAT ??_C@_0BB@IIMLINA@bad?5huffman?5code@
CONST	SEGMENT
??_C@_0BB@IIMLINA@bad?5huffman?5code@ DB 'bad huffman code', 00H ; `string'
CONST	ENDS
;	COMDAT ??_C@_1KE@JGKPJEBO@?$AA?$CI?$AA?$CI?$AA?$CI?$AAj?$AA?9?$AA?$DO?$AAc?$AAo?$AAd?$AAe?$AA_?$AAb?$AAu?$AAf?$AAf@
CONST	SEGMENT
??_C@_1KE@JGKPJEBO@?$AA?$CI?$AA?$CI?$AA?$CI?$AAj?$AA?9?$AA?$DO?$AAc?$AAo?$AAd?$AAe?$AA_?$AAb?$AAu?$AAf?$AAf@ DB '('
	DB	00H, '(', 00H, '(', 00H, 'j', 00H, '-', 00H, '>', 00H, 'c', 00H
	DB	'o', 00H, 'd', 00H, 'e', 00H, '_', 00H, 'b', 00H, 'u', 00H, 'f'
	DB	00H, 'f', 00H, 'e', 00H, 'r', 00H, ')', 00H, ' ', 00H, '>', 00H
	DB	'>', 00H, ' ', 00H, '(', 00H, '3', 00H, '2', 00H, ' ', 00H, '-'
	DB	00H, ' ', 00H, 'h', 00H, '-', 00H, '>', 00H, 's', 00H, 'i', 00H
	DB	'z', 00H, 'e', 00H, '[', 00H, 'c', 00H, ']', 00H, ')', 00H, ')'
	DB	00H, ' ', 00H, '&', 00H, ' ', 00H, 's', 00H, 't', 00H, 'b', 00H
	DB	'i', 00H, '_', 00H, '_', 00H, 'b', 00H, 'm', 00H, 'a', 00H, 's'
	DB	00H, 'k', 00H, '[', 00H, 'h', 00H, '-', 00H, '>', 00H, 's', 00H
	DB	'i', 00H, 'z', 00H, 'e', 00H, '[', 00H, 'c', 00H, ']', 00H, ']'
	DB	00H, ')', 00H, ' ', 00H, '=', 00H, '=', 00H, ' ', 00H, 'h', 00H
	DB	'-', 00H, '>', 00H, 'c', 00H, 'o', 00H, 'd', 00H, 'e', 00H, '['
	DB	00H, 'c', 00H, ']', 00H, 00H, 00H		; `string'
CONST	ENDS
;	COMDAT ??_C@_0BB@FOKGPEKG@bad?5code?5lengths@
CONST	SEGMENT
??_C@_0BB@FOKGPEKG@bad?5code?5lengths@ DB 'bad code lengths', 00H ; `string'
CONST	ENDS
;	COMDAT ??_C@_0O@DEFOLMLB@bad?5size?5list@
CONST	SEGMENT
??_C@_0O@DEFOLMLB@bad?5size?5list@ DB 'bad size list', 00H ; `string'
CONST	ENDS
;	COMDAT ??_C@_0M@MHDBFHD@unsupported@
CONST	SEGMENT
??_C@_0M@MHDBFHD@unsupported@ DB 'unsupported', 00H	; `string'
CONST	ENDS
;	COMDAT ??_C@_13COJANIEC@?$AA0@
CONST	SEGMENT
??_C@_13COJANIEC@?$AA0@ DB '0', 00H, 00H, 00H		; `string'
CONST	ENDS
;	COMDAT ??_C@_1DO@MABJBNAJ@?$AAr?$AAe?$AAq?$AA_?$AAc?$AAo?$AAm?$AAp?$AA?5?$AA?$DO?$AA?$DN?$AA?5?$AA1?$AA?5?$AA?$CG@
CONST	SEGMENT
??_C@_1DO@MABJBNAJ@?$AAr?$AAe?$AAq?$AA_?$AAc?$AAo?$AAm?$AAp?$AA?5?$AA?$DO?$AA?$DN?$AA?5?$AA1?$AA?5?$AA?$CG@ DB 'r'
	DB	00H, 'e', 00H, 'q', 00H, '_', 00H, 'c', 00H, 'o', 00H, 'm', 00H
	DB	'p', 00H, ' ', 00H, '>', 00H, '=', 00H, ' ', 00H, '1', 00H, ' '
	DB	00H, '&', 00H, '&', 00H, ' ', 00H, 'r', 00H, 'e', 00H, 'q', 00H
	DB	'_', 00H, 'c', 00H, 'o', 00H, 'm', 00H, 'p', 00H, ' ', 00H, '<'
	DB	00H, '=', 00H, ' ', 00H, '4', 00H, 00H, 00H	; `string'
CONST	ENDS
;	COMDAT ??_C@_0M@JPDHFAGK@can?8t?5fopen@
CONST	SEGMENT
??_C@_0M@JPDHFAGK@can?8t?5fopen@ DB 'can''t fopen', 00H	; `string'
CONST	ENDS
;	COMDAT ??_C@_02JDPG@rb@
CONST	SEGMENT
??_C@_02JDPG@rb@ DB 'rb', 00H				; `string'
CONST	ENDS
;	COMDAT ??_C@_1GM@LFNCFCEN@?$AAr?$AAi?$AA?4?$AAb?$AAi?$AAt?$AAs?$AA_?$AAp?$AAe?$AAr?$AA_?$AAc?$AAh?$AAa@
CONST	SEGMENT
??_C@_1GM@LFNCFCEN@?$AAr?$AAi?$AA?4?$AAb?$AAi?$AAt?$AAs?$AA_?$AAp?$AAe?$AAr?$AA_?$AAc?$AAh?$AAa@ DB 'r'
	DB	00H, 'i', 00H, '.', 00H, 'b', 00H, 'i', 00H, 't', 00H, 's', 00H
	DB	'_', 00H, 'p', 00H, 'e', 00H, 'r', 00H, '_', 00H, 'c', 00H, 'h'
	DB	00H, 'a', 00H, 'n', 00H, 'n', 00H, 'e', 00H, 'l', 00H, ' ', 00H
	DB	'=', 00H, '=', 00H, ' ', 00H, '8', 00H, ' ', 00H, '|', 00H, '|'
	DB	00H, ' ', 00H, 'r', 00H, 'i', 00H, '.', 00H, 'b', 00H, 'i', 00H
	DB	't', 00H, 's', 00H, '_', 00H, 'p', 00H, 'e', 00H, 'r', 00H, '_'
	DB	00H, 'c', 00H, 'h', 00H, 'a', 00H, 'n', 00H, 'n', 00H, 'e', 00H
	DB	'l', 00H, ' ', 00H, '=', 00H, '=', 00H, ' ', 00H, '1', 00H, '6'
	DB	00H, 00H, 00H				; `string'
CONST	ENDS
;	COMDAT ??_C@_1LA@GJDALCKK@?$AAC?$AA?3?$AA?2?$AAU?$AAs?$AAe?$AAr?$AAs?$AA?2?$AAd?$AAr?$AAa?$AAg?$AAo?$AA?2@
CONST	SEGMENT
??_C@_1LA@GJDALCKK@?$AAC?$AA?3?$AA?2?$AAU?$AAs?$AAe?$AAr?$AAs?$AA?2?$AAd?$AAr?$AAa?$AAg?$AAo?$AA?2@ DB 'C'
	DB	00H, ':', 00H, '\', 00H, 'U', 00H, 's', 00H, 'e', 00H, 'r', 00H
	DB	's', 00H, '\', 00H, 'd', 00H, 'r', 00H, 'a', 00H, 'g', 00H, 'o'
	DB	00H, '\', 00H, 's', 00H, 'o', 00H, 'u', 00H, 'r', 00H, 'c', 00H
	DB	'e', 00H, '\', 00H, 'r', 00H, 'e', 00H, 'p', 00H, 'o', 00H, 's'
	DB	00H, '\', 00H, 'c', 00H, 'G', 00H, 'a', 00H, 'm', 00H, 'e', 00H
	DB	' ', 00H, '-', 00H, ' ', 00H, 'l', 00H, 'e', 00H, 's', 00H, 's'
	DB	00H, ' ', 00H, 'c', 00H, 'o', 00H, 'm', 00H, 'm', 00H, 'e', 00H
	DB	'n', 00H, 't', 00H, 's', 00H, '\', 00H, 'c', 00H, 'G', 00H, 'a'
	DB	00H, 'm', 00H, 'e', 00H, '\', 00H, 'i', 00H, 'n', 00H, 'c', 00H
	DB	'l', 00H, 'u', 00H, 'd', 00H, 'e', 00H, 's', 00H, '\', 00H, 's'
	DB	00H, 't', 00H, 'b', 00H, '-', 00H, 'm', 00H, 'a', 00H, 's', 00H
	DB	't', 00H, 'e', 00H, 'r', 00H, '\', 00H, 's', 00H, 't', 00H, 'b'
	DB	00H, '_', 00H, 'i', 00H, 'm', 00H, 'a', 00H, 'g', 00H, 'e', 00H
	DB	'.', 00H, 'h', 00H, 00H, 00H			; `string'
CONST	ENDS
;	COMDAT ??_C@_08NOGIMCHF@outofmem@
CONST	SEGMENT
??_C@_08NOGIMCHF@outofmem@ DB 'outofmem', 00H		; `string'
CONST	ENDS
;	COMDAT ??_C@_0BD@CBEDEJPH@unknown?5image?5type@
CONST	SEGMENT
??_C@_0BD@CBEDEJPH@unknown?5image?5type@ DB 'unknown image type', 00H ; `string'
__8C83BECC_concurrencysal@h DB 01H
__608E3340_sal@h DB 01H
__FB67E29A_vadefs@h DB 01H
__1D1B619C_vcruntime@h DB 01H
__735960E1_corecrt@h DB 01H
__60B45B40_corecrt_stdio_config@h DB 01H
__CFA3741E_corecrt_wstdio@h DB 01H
__B3FE3303_stdio@h DB 01H
__211DB995_corecrt_malloc@h DB 01H
__955456CD_stddef@h DB 01H
__99AED4FB_corecrt_search@h DB 01H
__8B813BF6_corecrt_wstdlib@h DB 01H
__3D1CA2C3_limits@h DB 01H
__E8FB0A68_stdlib@h DB 01H
__B7B53233_stdarg@h DB 01H
__13DE2371_errno@h DB 01H
__8C6AE390_vcruntime_string@h DB 01H
__8ACB2152_corecrt_memcpy_s@h DB 01H
__EA6C9D17_corecrt_memory@h DB 01H
__0DF2AF52_corecrt_wstring@h DB 01H
__6E889ECC_string@h DB 01H
__1D9A7FA2_corecrt_math@h DB 01H
__2E93F1C0_math@h DB 01H
__9FB25DBE_assert@h DB 01H
__5C8CA4D3_mmintrin@h DB 01H
__7CD62D9E_malloc@h DB 01H
__9DCE0DC8_xmmintrin@h DB 01H
__F8AC8404_emmintrin@h DB 01H
__47E843D2_intrin0@inl@h DB 01H
__130964FF_setjmp@h DB 01H
__270DEC8D_pmmintrin@h DB 01H
__97D49F0F_tmmintrin@h DB 01H
__BEEF8A8C_smmintrin@h DB 01H
__DB8D0340_nmmintrin@h DB 01H
__0E36F90E_wmmintrin@h DB 01H
__C5A2B409_zmmintrin@h DB 01H
__F2B616C3_immintrin@h DB 01H
__4875F786_ammintrin@h DB 01H
__353FD888_intrin@h DB 01H
__EA75B8E6_stb_image@h DB 01H
__4C2AD0C7_winpackagefamily@h DB 01H
__9DED9ED1_winapifamily@h DB 01H
__12FEDF4E_sdkddkver@h DB 01H
__9BAEE128_excpt@h DB 01H
__6B04FCB3_specstrings_undef@h DB 01H
__F4027AF7_specstrings_strict@h DB 01H
__B90340D4_sdv_driverspecs@h DB 01H
__BFFF5AD3_driverspecs@h DB 01H
__32847078_specstrings@h DB 01H
__108B2620_corecrt_wctype@h DB 01H
__6CD6613D_ctype@h DB 01H
__30902A1F_kernelspecs@h DB 01H
__376FD5CA_basetsd@h DB 01H
__9BEDF4DE_guiddef@h DB 01H
__51BFD2FE_pshpack4@h DB 01H
__31652CEA_poppack@h DB 01H
__5532AE4C_pshpack2@h DB 01H
__58A52B9A_pshpack8@h DB 01H
__57741015_pshpack1@h DB 01H
__CDE68C90_apiset@h DB 01H
__0BF06E8D_ktmtypes@h DB 01H
__40C200C0_winnt@h DB 01H
__9336F789_minwindef@h DB 01H
__55136115_windef@h DB 01H
__32205BF0_apisetcconv@h DB 01H
__B48FDEA0_minwinbase@h DB 01H
__3551B028_apiquery2@h DB 01H
__65BE04AA_processenv@h DB 01H
__4767CA46_fileapi@h DB 01H
__282E6C4B_fileapifromapp@h DB 01H
__393AF12C_debugapi@h DB 01H
__EBC502B8_utilapiset@h DB 01H
__1EAD8C69_handleapi@h DB 01H
__D8EF9B29_errhandlingapi@h DB 01H
__97FC1204_fibersapi@h DB 01H
__27448220_namedpipeapi@h DB 01H
__6EA33B2A_profileapi@h DB 01H
__EAC6F673_heapapi@h DB 01H
__D64EEA5A_ioapiset@h DB 01H
__144BD4B6_synchapi@h DB 01H
__03B1C640_interlockedapi@h DB 01H
__DC64CB38_processthreadsapi@h DB 01H
__D719B518_sysinfoapi@h DB 01H
__410385B1_memoryapi@h DB 01H
__C1AD45EF_enclaveapi@h DB 01H
__F4C3AA32_threadpoollegacyapiset@h DB 01H
__AC5A7A9F_threadpoolapiset@h DB 01H
__F5254B21_jobapi@h DB 01H
__BCEA6EE8_jobapi2@h DB 01H
__D18ACE72_wow64apiset@h DB 01H
__669B0D4A_libloaderapi@h DB 01H
__645F7034_securitybaseapi@h DB 01H
__67E58557_namespaceapi@h DB 01H
__599D9D3A_systemtopologyapi@h DB 01H
__2337E373_processtopologyapi@h DB 01H
__02BFF239_securityappcontainer@h DB 01H
__9C196272_realtimeapiset@h DB 01H
__5AB313A4_winerror@h DB 01H
__B7E7187B_timezoneapi@h DB 01H
__6DE9EB6F_winbase@h DB 01H
__56B2AFF2_wingdi@h DB 01H
__BA1161A9_tvout@h DB 01H
__0501A018_winuser@h DB 01H
__EF12FA99_datetimeapi@h DB 01H
__8FA7C3CA_winnls@h DB 01H
__390F0C47_stringapiset@h DB 01H
__28605B0A_wincontypes@h DB 01H
__BFBDE86D_consoleapi@h DB 01H
__C3CAFBF0_consoleapi2@h DB 01H
__C20891C7_consoleapi3@h DB 01H
__717C98B6_wincon@h DB 01H
__2884C177_verrsrc@h DB 01H
__A3FD3A34_winver@h DB 01H
__6F8AD9F1_reason@h DB 01H
__4C90FD6F_winreg@h DB 01H
__68AFEBAD_wnnc@h DB 01H
__5A7AB086_winnetwk@h DB 01H
__859C3CD3_cderr@h DB 01H
__81B12F1A_dde@h DB 01H
__DD3AF97A_ddeml@h DB 01H
__E6B47715_dlgs@h DB 01H
__944BD57D_lzexpand@h DB 01H
__E4B2DFC7_mmsyscom@h DB 01H
__5287D88F_mciapi@h DB 01H
__DBDC1384_mmiscapi@h DB 01H
__1A78C0D7_mmiscapi2@h DB 01H
__0D05975C_playsoundapi@h DB 01H
__757A63A9_mmeapi@h DB 01H
__6326AB05_timeapi@h DB 01H
__77D483B2_joystickapi@h DB 01H
__59CF7431_mmsystem@h DB 01H
__CEAC417E_nb30@h DB 01H
__3BA1A118_rpcdcep@h DB 01H
__74064437_rpcdce@h DB 01H
__90546602_rpcnsi@h DB 01H
__83114A2C_rpcnterr@h DB 01H
__CA67519E_rpcasync@h DB 01H
__D8CEBCD8_rpc@h DB 01H
__9F43AC2D_shellapi@h DB 01H
__6C8D3703_winperf@h DB 01H
__AB40A29E_inaddr@h DB 01H
__40D4FEA5_winsock@h DB 01H
__51394074_bcrypt@h DB 01H
__F177C154_ncrypt@h DB 01H
__1445529E_dpapi@h DB 01H
__5743FB20_wincrypt@h DB 01H
__97CA12BF_winefs@h DB 01H
__6DF63719_rpcnsip@h DB 01H
__031EFCA1_rpcsal@h DB 01H
__BA08D1DA_rpcndr@h DB 01H
__3A941F83_wtypesbase@h DB 01H
__C244FEE1_wtypes@h DB 01H
__FB7C5F97_winioctl@h DB 01H
__4B65E4AC_winsmcrd@h DB 01H
__1EA80168_winscard@h DB 01H
__516FC0F9_prsht@h DB 01H
__88BA11C6_winspool@h DB 01H
__18DB4C56_unknwnbase@h DB 01H
__1AE6FA1A_objidlbase@h DB 01H
__7F98E437_cguid@h DB 01H
__6B2DFB49_combaseapi@h DB 01H
__CB0E8B37_unknwn@h DB 01H
__D981EF0A_objidl@h DB 01H
__37089EB8_oaidl@h DB 01H
__CA2DDD8B_propidlbase@h DB 01H
__39ED323E_coml2api@h DB 01H
__78E82682_oleidl@h DB 01H
__97883CFE_servprov@h DB 01H
__CE01DDB9_msxml@h DB 01H
__A4784895_urlmon@h DB 01H
__325F1C97_propidl@h DB 01H
__D3D43343_objbase@h DB 01H
__B3A2AF1B_oleauto@h DB 01H
__5722A8AA_ole2@h DB 01H
__590A450A_commdlg@h DB 01H
__2FE8A10C_stralign@h DB 01H
__34558472_winsvc@h DB 01H
__058845F1_mcx@h DB 01H
__7F16006B_ime_cmodes@h DB 01H
__0A3AF599_imm@h DB 01H
__11B87C25_Windows@h DB 01H
__0B1C67B3_gl@h DB 01H
__D7C03EE9_glu@h DB 01H
__13490EC2_glew@h DB 01H
__F2638511_stdbool@h DB 01H
__836A8CFC_stdint@h DB 01H
__129F966A_glfw3@h DB 01H
__0A8909AB_vectors@h DB 01H
__E0493894_main@h DB 01H
__5CFF7615_Debug@h DB 01H
__565DCB0D_animations@h DB 01H
__D929D131_Physics@h DB 01H
__294C502B_Mesh@h DB 01H
__D1DC2946_EntityManager@h DB 01H
__EBE4262C_Dictionary@h DB 01H
__1F46D782_scene 1@h DB 01H
__46B7CB64_math@h DB 01H
__7C36FFA4_Dictionary@c DB 01H
cConst	DQ	0000000000003039H
aConst	DQ	00000000015a4e35H
?rgb@?5??stbi__process_frame_header@@9@9 DB 052H	; `stbi__process_frame_header'::`6'::rgb
	DB	047H
	DB	042H
	ORG $+5
stbi__jbias DD	00H
	DD	0ffffffffH
	DD	0fffffffdH
	DD	0fffffff9H
	DD	0fffffff1H
	DD	0ffffffe1H
	DD	0ffffffc1H
	DD	0ffffff81H
	DD	0ffffff01H
	DD	0fffffe01H
	DD	0fffffc01H
	DD	0fffff801H
	DD	0fffff001H
	DD	0ffffe001H
	DD	0ffffc001H
	DD	0ffff8001H
stbi__zdefault_length DB 08H
	DB	08H
	DB	08H
	DB	08H
	DB	08H
	DB	08H
	DB	08H
	DB	08H
	DB	08H
	DB	08H
	DB	08H
	DB	08H
	DB	08H
	DB	08H
	DB	08H
	DB	08H
	DB	08H
	DB	08H
	DB	08H
	DB	08H
	DB	08H
	DB	08H
	DB	08H
	DB	08H
	DB	08H
	DB	08H
	DB	08H
	DB	08H
	DB	08H
	DB	08H
	DB	08H
	DB	08H
	DB	08H
	DB	08H
	DB	08H
	DB	08H
	DB	08H
	DB	08H
	DB	08H
	DB	08H
	DB	08H
	DB	08H
	DB	08H
	DB	08H
	DB	08H
	DB	08H
	DB	08H
	DB	08H
	DB	08H
	DB	08H
	DB	08H
	DB	08H
	DB	08H
	DB	08H
	DB	08H
	DB	08H
	DB	08H
	DB	08H
	DB	08H
	DB	08H
	DB	08H
	DB	08H
	DB	08H
	DB	08H
	DB	08H
	DB	08H
	DB	08H
	DB	08H
	DB	08H
	DB	08H
	DB	08H
	DB	08H
	DB	08H
	DB	08H
	DB	08H
	DB	08H
	DB	08H
	DB	08H
	DB	08H
	DB	08H
	DB	08H
	DB	08H
	DB	08H
	DB	08H
	DB	08H
	DB	08H
	DB	08H
	DB	08H
	DB	08H
	DB	08H
	DB	08H
	DB	08H
	DB	08H
	DB	08H
	DB	08H
	DB	08H
	DB	08H
	DB	08H
	DB	08H
	DB	08H
	DB	08H
	DB	08H
	DB	08H
	DB	08H
	DB	08H
	DB	08H
	DB	08H
	DB	08H
	DB	08H
	DB	08H
	DB	08H
	DB	08H
	DB	08H
	DB	08H
	DB	08H
	DB	08H
	DB	08H
	DB	08H
	DB	08H
	DB	08H
	DB	08H
	DB	08H
	DB	08H
	DB	08H
	DB	08H
	DB	08H
	DB	08H
	DB	08H
	DB	08H
	DB	08H
	DB	08H
	DB	08H
	DB	08H
	DB	08H
	DB	08H
	DB	08H
	DB	08H
	DB	08H
	DB	08H
	DB	08H
	DB	08H
	DB	08H
	DB	08H
	DB	08H
	DB	09H
	DB	09H
	DB	09H
	DB	09H
	DB	09H
	DB	09H
	DB	09H
	DB	09H
	DB	09H
	DB	09H
	DB	09H
	DB	09H
	DB	09H
	DB	09H
	DB	09H
	DB	09H
	DB	09H
	DB	09H
	DB	09H
	DB	09H
	DB	09H
	DB	09H
	DB	09H
	DB	09H
	DB	09H
	DB	09H
	DB	09H
	DB	09H
	DB	09H
	DB	09H
	DB	09H
	DB	09H
	DB	09H
	DB	09H
	DB	09H
	DB	09H
	DB	09H
	DB	09H
	DB	09H
	DB	09H
	DB	09H
	DB	09H
	DB	09H
	DB	09H
	DB	09H
	DB	09H
	DB	09H
	DB	09H
	DB	09H
	DB	09H
	DB	09H
	DB	09H
	DB	09H
	DB	09H
	DB	09H
	DB	09H
	DB	09H
	DB	09H
	DB	09H
	DB	09H
	DB	09H
	DB	09H
	DB	09H
	DB	09H
	DB	09H
	DB	09H
	DB	09H
	DB	09H
	DB	09H
	DB	09H
	DB	09H
	DB	09H
	DB	09H
	DB	09H
	DB	09H
	DB	09H
	DB	09H
	DB	09H
	DB	09H
	DB	09H
	DB	09H
	DB	09H
	DB	09H
	DB	09H
	DB	09H
	DB	09H
	DB	09H
	DB	09H
	DB	09H
	DB	09H
	DB	09H
	DB	09H
	DB	09H
	DB	09H
	DB	09H
	DB	09H
	DB	09H
	DB	09H
	DB	09H
	DB	09H
	DB	09H
	DB	09H
	DB	09H
	DB	09H
	DB	09H
	DB	09H
	DB	09H
	DB	09H
	DB	09H
	DB	09H
	DB	09H
	DB	09H
	DB	07H
	DB	07H
	DB	07H
	DB	07H
	DB	07H
	DB	07H
	DB	07H
	DB	07H
	DB	07H
	DB	07H
	DB	07H
	DB	07H
	DB	07H
	DB	07H
	DB	07H
	DB	07H
	DB	07H
	DB	07H
	DB	07H
	DB	07H
	DB	07H
	DB	07H
	DB	07H
	DB	07H
	DB	08H
	DB	08H
	DB	08H
	DB	08H
	DB	08H
	DB	08H
	DB	08H
	DB	08H
stbi__jpeg_dezigzag DB 00H
	DB	01H
	DB	08H
	DB	010H
	DB	09H
	DB	02H
	DB	03H
	DB	0aH
	DB	011H
	DB	018H
	DB	020H
	DB	019H
	DB	012H
	DB	0bH
	DB	04H
	DB	05H
	DB	0cH
	DB	013H
	DB	01aH
	DB	021H
	DB	028H
	DB	030H
	DB	029H
	DB	022H
	DB	01bH
	DB	014H
	DB	0dH
	DB	06H
	DB	07H
	DB	0eH
	DB	015H
	DB	01cH
	DB	023H
	DB	02aH
	DB	031H
	DB	038H
	DB	039H
	DB	032H
	DB	02bH
	DB	024H
	DB	01dH
	DB	016H
	DB	0fH
	DB	017H
	DB	01eH
	DB	025H
	DB	02cH
	DB	033H
	DB	03aH
	DB	03bH
	DB	034H
	DB	02dH
	DB	026H
	DB	01fH
	DB	027H
	DB	02eH
	DB	035H
	DB	03cH
	DB	03dH
	DB	036H
	DB	02fH
	DB	037H
	DB	03eH
	DB	03fH
	DB	03fH
	DB	03fH
	DB	03fH
	DB	03fH
	DB	03fH
	DB	03fH
	DB	03fH
	DB	03fH
	DB	03fH
	DB	03fH
	DB	03fH
	DB	03fH
	DB	03fH
	DB	03fH
	DB	03fH
	ORG $+1
stbi__zlength_base DD 03H
	DD	04H
	DD	05H
	DD	06H
	DD	07H
	DD	08H
	DD	09H
	DD	0aH
	DD	0bH
	DD	0dH
	DD	0fH
	DD	011H
	DD	013H
	DD	017H
	DD	01bH
	DD	01fH
	DD	023H
	DD	02bH
	DD	033H
	DD	03bH
	DD	043H
	DD	053H
	DD	063H
	DD	073H
	DD	083H
	DD	0a3H
	DD	0c3H
	DD	0e3H
	DD	0102H
	DD	00H
	DD	00H
	ORG $+4
stbi__zdist_base DD 01H
	DD	02H
	DD	03H
	DD	04H
	DD	05H
	DD	07H
	DD	09H
	DD	0dH
	DD	011H
	DD	019H
	DD	021H
	DD	031H
	DD	041H
	DD	061H
	DD	081H
	DD	0c1H
	DD	0101H
	DD	0181H
	DD	0201H
	DD	0301H
	DD	0401H
	DD	0601H
	DD	0801H
	DD	0c01H
	DD	01001H
	DD	01801H
	DD	02001H
	DD	03001H
	DD	04001H
	DD	06001H
	DD	00H
	DD	00H
stbi__bmask DD	00H
	DD	01H
	DD	03H
	DD	07H
	DD	0fH
	DD	01fH
	DD	03fH
	DD	07fH
	DD	0ffH
	DD	01ffH
	DD	03ffH
	DD	07ffH
	DD	0fffH
	DD	01fffH
	DD	03fffH
	DD	07fffH
	DD	0ffffH
	ORG $+4
stbi__zlength_extra DD 00H
	DD	00H
	DD	00H
	DD	00H
	DD	00H
	DD	00H
	DD	00H
	DD	00H
	DD	01H
	DD	01H
	DD	01H
	DD	01H
	DD	02H
	DD	02H
	DD	02H
	DD	02H
	DD	03H
	DD	03H
	DD	03H
	DD	03H
	DD	04H
	DD	04H
	DD	04H
	DD	04H
	DD	05H
	DD	05H
	DD	05H
	DD	05H
	DD	00H
	DD	00H
	DD	00H
?tag@?O@??stbi__process_marker@@9@9 DB 04aH		; `stbi__process_marker'::`14'::tag
	DB	046H
	DB	049H
	DB	046H
	DB	00H
	ORG $+7
?length_dezigzag@?1??stbi__compute_huffman_codes@@9@9 DB 010H ; `stbi__compute_huffman_codes'::`2'::length_dezigzag
	DB	011H
	DB	012H
	DB	00H
	DB	08H
	DB	07H
	DB	09H
	DB	06H
	DB	0aH
	DB	05H
	DB	0bH
	DB	04H
	DB	0cH
	DB	03H
	DB	0dH
	DB	02H
	DB	0eH
	DB	01H
	DB	0fH
	ORG $+5
stbi__depth_scale_table DB 00H
	DB	0ffH
	DB	055H
	DB	00H
	DB	011H
	DB	00H
	DB	00H
	DB	00H
	DB	01H
	ORG $+7
stbi__zdefault_distance DB 05H
	DB	05H
	DB	05H
	DB	05H
	DB	05H
	DB	05H
	DB	05H
	DB	05H
	DB	05H
	DB	05H
	DB	05H
	DB	05H
	DB	05H
	DB	05H
	DB	05H
	DB	05H
	DB	05H
	DB	05H
	DB	05H
	DB	05H
	DB	05H
	DB	05H
	DB	05H
	DB	05H
	DB	05H
	DB	05H
	DB	05H
	DB	05H
	DB	05H
	DB	05H
	DB	05H
	DB	05H
?tag@?BA@??stbi__process_marker@@9@9 DB 041H		; `stbi__process_marker'::`16'::tag
	DB	064H
	DB	06fH
	DB	062H
	DB	065H
	DB	00H
	ORG $+2
maxNugRand DQ	0000000100000000H
stbi__zdist_extra DD 00H
	DD	00H
	DD	00H
	DD	00H
	DD	01H
	DD	01H
	DD	02H
	DD	02H
	DD	03H
	DD	03H
	DD	04H
	DD	04H
	DD	05H
	DD	05H
	DD	06H
	DD	06H
	DD	07H
	DD	07H
	DD	08H
	DD	08H
	DD	09H
	DD	09H
	DD	0aH
	DD	0aH
	DD	0bH
	DD	0bH
	DD	0cH
	DD	0cH
	DD	0dH
	DD	0dH
	ORG $+8
?png_sig@?1??stbi__check_png_header@@9@9 DB 089H	; `stbi__check_png_header'::`2'::png_sig
	DB	050H
	DB	04eH
	DB	047H
	DB	0dH
	DB	0aH
	DB	01aH
	DB	0aH
PUBLIC	NugHash
PUBLIC	GetFrame
PUBLIC	TryGetFrame
PUBLIC	AddFrameData
PUBLIC	AddLocVal2
PUBLIC	GetLocVal2
PUBLIC	AddUintVal2
PUBLIC	GetUintVal2
PUBLIC	UAbs
PUBLIC	NugRand
PUBLIC	stbi_is_16_bit_from_callbacks
PUBLIC	stbi_is_16_bit_from_memory
PUBLIC	stbi_info_from_callbacks
PUBLIC	stbi_info_from_memory
PUBLIC	stbi_is_16_bit_from_file
PUBLIC	stbi_is_16_bit
PUBLIC	stbi_info_from_file
PUBLIC	stbi_info
PUBLIC	stbi_convert_iphone_png_to_rgb_thread
PUBLIC	stbi_set_unpremultiply_on_load_thread
PUBLIC	stbi_convert_iphone_png_to_rgb
PUBLIC	stbi_set_unpremultiply_on_load
PUBLIC	stbi_zlib_decode_noheader_buffer
PUBLIC	stbi_zlib_decode_noheader_malloc
PUBLIC	stbi_zlib_decode_buffer
PUBLIC	stbi_zlib_decode_malloc_guesssize_headerflag
PUBLIC	stbi_zlib_decode_malloc
PUBLIC	stbi_zlib_decode_malloc_guesssize
PUBLIC	stbi_hdr_to_ldr_scale
PUBLIC	stbi_hdr_to_ldr_gamma
PUBLIC	stbi_ldr_to_hdr_scale
PUBLIC	stbi_ldr_to_hdr_gamma
PUBLIC	stbi_is_hdr_from_callbacks
PUBLIC	stbi_is_hdr_from_file
PUBLIC	stbi_is_hdr
PUBLIC	stbi_is_hdr_from_memory
PUBLIC	stbi_loadf_from_file
PUBLIC	stbi_loadf
PUBLIC	stbi_loadf_from_callbacks
PUBLIC	stbi_loadf_from_memory
PUBLIC	stbi_load_gif_from_memory
PUBLIC	stbi_load_from_callbacks
PUBLIC	stbi_load_from_memory
PUBLIC	stbi_load_16_from_callbacks
PUBLIC	stbi_load_16_from_memory
PUBLIC	stbi_load_16
PUBLIC	stbi_load_from_file_16
PUBLIC	stbi_load_from_file
PUBLIC	stbi_load
PUBLIC	stbi_set_flip_vertically_on_load_thread
PUBLIC	stbi_set_flip_vertically_on_load
PUBLIC	stbi_image_free
PUBLIC	TryGetFrame2
PUBLIC	stbi_failure_reason
stbi__vertically_flip_on_load_local DD 01H DUP (?)
stbi__de_iphone_flag_global DD 01H DUP (?)
stbi__vertically_flip_on_load_global DD 01H DUP (?)
	ALIGN	8

stbi__g_failure_reason DQ 01H DUP (?)
stbi__unpremultiply_on_load_global DD 01H DUP (?)
stbi__unpremultiply_on_load_set DD 01H DUP (?)
stbi__de_iphone_flag_local DD 01H DUP (?)
stbi__de_iphone_flag_set DD 01H DUP (?)
stbi__unpremultiply_on_load_local DD 01H DUP (?)
stbi__vertically_flip_on_load_set DD 01H DUP (?)
_TLS	ENDS
pdata	SEGMENT
$pdata$NugHash DD imagerel $LN7
	DD	imagerel $LN7+167
	DD	imagerel $unwind$NugHash
$pdata$GetFrame DD imagerel $LN6
	DD	imagerel $LN6+153
	DD	imagerel $unwind$GetFrame
$pdata$TryGetFrame DD imagerel $LN4
	DD	imagerel $LN4+149
	DD	imagerel $unwind$TryGetFrame
$pdata$AddFrameData DD imagerel $LN4
	DD	imagerel $LN4+277
	DD	imagerel $unwind$AddFrameData
$pdata$AddLocVal2 DD imagerel $LN4
	DD	imagerel $LN4+240
	DD	imagerel $unwind$AddLocVal2
$pdata$GetLocVal2 DD imagerel $LN6
	DD	imagerel $LN6+134
	DD	imagerel $unwind$GetLocVal2
$pdata$AddUintVal2 DD imagerel $LN10
	DD	imagerel $LN10+336
	DD	imagerel $unwind$AddUintVal2
$pdata$GetUintVal2 DD imagerel $LN12
	DD	imagerel $LN12+248
	DD	imagerel $unwind$GetUintVal2
pdata	ENDS
;	COMDAT pdata
pdata	SEGMENT
$pdata$UAbs DD	imagerel $LN5
	DD	imagerel $LN5+78
	DD	imagerel $unwind$UAbs
pdata	ENDS
;	COMDAT pdata
pdata	SEGMENT
$pdata$NugRand DD imagerel $LN3
	DD	imagerel $LN3+60
	DD	imagerel $unwind$NugRand
pdata	ENDS
pdata	SEGMENT
$pdata$stbi_is_16_bit_from_callbacks DD imagerel $LN3
	DD	imagerel $LN3+155
	DD	imagerel $unwind$stbi_is_16_bit_from_callbacks
$pdata$stbi_is_16_bit_from_memory DD imagerel $LN3
	DD	imagerel $LN3+154
	DD	imagerel $unwind$stbi_is_16_bit_from_memory
$pdata$stbi_info_from_callbacks DD imagerel $LN3
	DD	imagerel $LN3+189
	DD	imagerel $unwind$stbi_info_from_callbacks
$pdata$stbi_info_from_memory DD imagerel $LN3
	DD	imagerel $LN3+188
	DD	imagerel $unwind$stbi_info_from_memory
$pdata$stbi_is_16_bit_from_file DD imagerel $LN3
	DD	imagerel $LN3+193
	DD	imagerel $unwind$stbi_is_16_bit_from_file
$pdata$stbi_is_16_bit DD imagerel $LN4
	DD	imagerel $LN4+101
	DD	imagerel $unwind$stbi_is_16_bit
$pdata$stbi_info_from_file DD imagerel $LN3
	DD	imagerel $LN3+232
	DD	imagerel $unwind$stbi_info_from_file
$pdata$stbi_info DD imagerel $LN4
	DD	imagerel $LN4+131
	DD	imagerel $unwind$stbi_info
$pdata$stbi__is_16_main DD imagerel stbi__is_16_main
	DD	imagerel stbi__is_16_main+93
	DD	imagerel $unwind$stbi__is_16_main
$pdata$stbi__info_main DD imagerel stbi__info_main
	DD	imagerel stbi__info_main+394
	DD	imagerel $unwind$stbi__info_main
$pdata$stbi__pnm_is16 DD imagerel stbi__pnm_is16
	DD	imagerel stbi__pnm_is16+60
	DD	imagerel $unwind$stbi__pnm_is16
$pdata$stbi__pnm_info DD imagerel stbi__pnm_info
	DD	imagerel stbi__pnm_info+1160
	DD	imagerel $unwind$stbi__pnm_info
$pdata$stbi__pnm_getinteger DD imagerel stbi__pnm_getinteger
	DD	imagerel stbi__pnm_getinteger+445
	DD	imagerel $unwind$stbi__pnm_getinteger
$pdata$stbi__pnm_isdigit DD imagerel stbi__pnm_isdigit
	DD	imagerel stbi__pnm_isdigit+69
	DD	imagerel $unwind$stbi__pnm_isdigit
$pdata$stbi__pnm_skip_whitespace DD imagerel stbi__pnm_skip_whitespace
	DD	imagerel stbi__pnm_skip_whitespace+858
	DD	imagerel $unwind$stbi__pnm_skip_whitespace
$pdata$stbi__pnm_isspace DD imagerel stbi__pnm_isspace
	DD	imagerel stbi__pnm_isspace+109
	DD	imagerel $unwind$stbi__pnm_isspace
$pdata$stbi__pnm_load DD imagerel stbi__pnm_load
	DD	imagerel stbi__pnm_load+908
	DD	imagerel $unwind$stbi__pnm_load
$pdata$stbi__pnm_test DD imagerel stbi__pnm_test
	DD	imagerel stbi__pnm_test+427
	DD	imagerel $unwind$stbi__pnm_test
$pdata$stbi__pic_info DD imagerel stbi__pic_info
	DD	imagerel stbi__pic_info+1882
	DD	imagerel $unwind$stbi__pic_info
$pdata$stbi__psd_is16 DD imagerel stbi__psd_is16
	DD	imagerel stbi__psd_is16+208
	DD	imagerel $unwind$stbi__psd_is16
$pdata$stbi__psd_info DD imagerel stbi__psd_info
	DD	imagerel stbi__psd_info+430
	DD	imagerel $unwind$stbi__psd_info
$pdata$stbi__bmp_info DD imagerel stbi__bmp_info
	DD	imagerel stbi__bmp_info+333
	DD	imagerel $unwind$stbi__bmp_info
$pdata$stbi__hdr_info DD imagerel stbi__hdr_info
	DD	imagerel stbi__hdr_info+691
	DD	imagerel $unwind$stbi__hdr_info
$pdata$stbi__hdr_load DD imagerel stbi__hdr_load
	DD	imagerel stbi__hdr_load+4616
	DD	imagerel $unwind$stbi__hdr_load
$pdata$stbi__hdr_convert DD imagerel stbi__hdr_convert
	DD	imagerel stbi__hdr_convert+623
	DD	imagerel $unwind$stbi__hdr_convert
$pdata$stbi__hdr_gettoken DD imagerel stbi__hdr_gettoken
	DD	imagerel stbi__hdr_gettoken+921
	DD	imagerel $unwind$stbi__hdr_gettoken
$pdata$stbi__hdr_test DD imagerel stbi__hdr_test
	DD	imagerel stbi__hdr_test+102
	DD	imagerel $unwind$stbi__hdr_test
$pdata$stbi__hdr_test_core DD imagerel stbi__hdr_test_core
	DD	imagerel stbi__hdr_test_core+292
	DD	imagerel $unwind$stbi__hdr_test_core
$pdata$stbi__gif_info DD imagerel stbi__gif_info
	DD	imagerel stbi__gif_info+68
	DD	imagerel $unwind$stbi__gif_info
$pdata$stbi__gif_load DD imagerel stbi__gif_load
	DD	imagerel stbi__gif_load+379
	DD	imagerel $unwind$stbi__gif_load
$pdata$stbi__load_gif_main DD imagerel stbi__load_gif_main
	DD	imagerel stbi__load_gif_main+1182
	DD	imagerel $unwind$stbi__load_gif_main
$pdata$stbi__load_gif_main_outofmem DD imagerel stbi__load_gif_main_outofmem
	DD	imagerel stbi__load_gif_main_outofmem+178
	DD	imagerel $unwind$stbi__load_gif_main_outofmem
$pdata$stbi__gif_load_next DD imagerel stbi__gif_load_next
	DD	imagerel stbi__gif_load_next+3988
	DD	imagerel $unwind$stbi__gif_load_next
$pdata$stbi__process_gif_raster DD imagerel stbi__process_gif_raster
	DD	imagerel stbi__process_gif_raster+1930
	DD	imagerel $unwind$stbi__process_gif_raster
$pdata$stbi__out_gif_code DD imagerel stbi__out_gif_code
	DD	imagerel stbi__out_gif_code+677
	DD	imagerel $unwind$stbi__out_gif_code
$pdata$stbi__gif_info_raw DD imagerel stbi__gif_info_raw
	DD	imagerel stbi__gif_info_raw+196
	DD	imagerel $unwind$stbi__gif_info_raw
$pdata$stbi__gif_header DD imagerel stbi__gif_header
	DD	imagerel stbi__gif_header+1993
	DD	imagerel $unwind$stbi__gif_header
$pdata$stbi__gif_parse_colortable DD imagerel stbi__gif_parse_colortable
	DD	imagerel stbi__gif_parse_colortable+733
	DD	imagerel $unwind$stbi__gif_parse_colortable
$pdata$stbi__gif_test DD imagerel stbi__gif_test
	DD	imagerel stbi__gif_test+56
	DD	imagerel $unwind$stbi__gif_test
$pdata$stbi__gif_test_raw DD imagerel stbi__gif_test_raw
	DD	imagerel stbi__gif_test_raw+1150
	DD	imagerel $unwind$stbi__gif_test_raw
$pdata$stbi__pic_test DD imagerel stbi__pic_test
	DD	imagerel stbi__pic_test+56
	DD	imagerel $unwind$stbi__pic_test
$pdata$stbi__pic_load DD imagerel stbi__pic_load
	DD	imagerel stbi__pic_load+1139
	DD	imagerel $unwind$stbi__pic_load
$pdata$stbi__pic_load_core DD imagerel stbi__pic_load_core
	DD	imagerel stbi__pic_load_core+3597
	DD	imagerel $unwind$stbi__pic_load_core
$pdata$stbi__copyval DD imagerel stbi__copyval
	DD	imagerel stbi__copyval+128
	DD	imagerel $unwind$stbi__copyval
$pdata$stbi__readval DD imagerel stbi__readval
	DD	imagerel stbi__readval+470
	DD	imagerel $unwind$stbi__readval
$pdata$stbi__pic_test_core DD imagerel stbi__pic_test_core
	DD	imagerel stbi__pic_test_core+263
	DD	imagerel $unwind$stbi__pic_test_core
$pdata$stbi__pic_is4 DD imagerel stbi__pic_is4
	DD	imagerel stbi__pic_is4+271
	DD	imagerel $unwind$stbi__pic_is4
$pdata$stbi__psd_load DD imagerel stbi__psd_load
	DD	imagerel stbi__psd_load+3291
	DD	imagerel $unwind$stbi__psd_load
$pdata$stbi__psd_decode_rle DD imagerel stbi__psd_decode_rle
	DD	imagerel stbi__psd_decode_rle+836
	DD	imagerel $unwind$stbi__psd_decode_rle
$pdata$stbi__psd_test DD imagerel stbi__psd_test
	DD	imagerel stbi__psd_test+85
	DD	imagerel $unwind$stbi__psd_test
$pdata$stbi__tga_load DD imagerel stbi__tga_load
	DD	imagerel stbi__tga_load+4981
	DD	imagerel $unwind$stbi__tga_load
$pdata$stbi__tga_read_rgb16 DD imagerel stbi__tga_read_rgb16
	DD	imagerel stbi__tga_read_rgb16+211
	DD	imagerel $unwind$stbi__tga_read_rgb16
$pdata$stbi__tga_test DD imagerel stbi__tga_test
	DD	imagerel stbi__tga_test+1175
	DD	imagerel $unwind$stbi__tga_test
$pdata$stbi__tga_info DD imagerel stbi__tga_info
	DD	imagerel stbi__tga_info+1544
	DD	imagerel $unwind$stbi__tga_info
$pdata$stbi__tga_get_comp DD imagerel stbi__tga_get_comp
	DD	imagerel stbi__tga_get_comp+164
	DD	imagerel $unwind$stbi__tga_get_comp
$pdata$stbi__bmp_load DD imagerel stbi__bmp_load
	DD	imagerel stbi__bmp_load+7838
	DD	imagerel $unwind$stbi__bmp_load
$pdata$stbi__bmp_parse_header DD imagerel stbi__bmp_parse_header
	DD	imagerel stbi__bmp_parse_header+1998
	DD	imagerel $unwind$stbi__bmp_parse_header
$pdata$stbi__bmp_set_mask_defaults DD imagerel stbi__bmp_set_mask_defaults
	DD	imagerel stbi__bmp_set_mask_defaults+237
	DD	imagerel $unwind$stbi__bmp_set_mask_defaults
$pdata$stbi__shiftsigned DD imagerel stbi__shiftsigned
	DD	imagerel stbi__shiftsigned+222
	DD	imagerel $unwind$stbi__shiftsigned
$pdata$stbi__bitcount DD imagerel stbi__bitcount
	DD	imagerel stbi__bitcount+153
	DD	imagerel $unwind$stbi__bitcount
$pdata$stbi__high_bit DD imagerel stbi__high_bit
	DD	imagerel stbi__high_bit+195
	DD	imagerel $unwind$stbi__high_bit
$pdata$stbi__bmp_test DD imagerel stbi__bmp_test
	DD	imagerel stbi__bmp_test+56
	DD	imagerel $unwind$stbi__bmp_test
$pdata$stbi__bmp_test_raw DD imagerel stbi__bmp_test_raw
	DD	imagerel stbi__bmp_test_raw+516
	DD	imagerel $unwind$stbi__bmp_test_raw
$pdata$stbi__png_is16 DD imagerel stbi__png_is16
	DD	imagerel stbi__png_is16+167
	DD	imagerel $unwind$stbi__png_is16
$pdata$stbi__png_info DD imagerel stbi__png_info
	DD	imagerel stbi__png_info+164
	DD	imagerel $unwind$stbi__png_info
$pdata$stbi__png_info_raw DD imagerel stbi__png_info_raw
	DD	imagerel stbi__png_info_raw+164
	DD	imagerel $unwind$stbi__png_info_raw
$pdata$stbi__png_test DD imagerel stbi__png_test
	DD	imagerel stbi__png_test+56
	DD	imagerel $unwind$stbi__png_test
$pdata$stbi__png_load DD imagerel stbi__png_load
	DD	imagerel stbi__png_load+194
	DD	imagerel $unwind$stbi__png_load
$pdata$stbi__do_png DD imagerel stbi__do_png
	DD	imagerel stbi__do_png+632
	DD	imagerel $unwind$stbi__do_png
$pdata$stbi__parse_png_file DD imagerel stbi__parse_png_file
	DD	imagerel stbi__parse_png_file+5957
	DD	imagerel $unwind$stbi__parse_png_file
$pdata$stbi__de_iphone DD imagerel stbi__de_iphone
	DD	imagerel stbi__de_iphone+801
	DD	imagerel $unwind$stbi__de_iphone
$pdata$stbi_convert_iphone_png_to_rgb_thread DD imagerel $LN3
	DD	imagerel $LN3+79
	DD	imagerel $unwind$stbi_convert_iphone_png_to_rgb_thread
$pdata$stbi_set_unpremultiply_on_load_thread DD imagerel $LN3
	DD	imagerel $LN3+79
	DD	imagerel $unwind$stbi_set_unpremultiply_on_load_thread
$pdata$stbi_convert_iphone_png_to_rgb DD imagerel $LN3
	DD	imagerel $LN3+37
	DD	imagerel $unwind$stbi_convert_iphone_png_to_rgb
$pdata$stbi_set_unpremultiply_on_load DD imagerel $LN3
	DD	imagerel $LN3+37
	DD	imagerel $unwind$stbi_set_unpremultiply_on_load
$pdata$stbi__expand_png_palette DD imagerel stbi__expand_png_palette
	DD	imagerel stbi__expand_png_palette+577
	DD	imagerel $unwind$stbi__expand_png_palette
$pdata$stbi__compute_transparency16 DD imagerel stbi__compute_transparency16
	DD	imagerel stbi__compute_transparency16+468
	DD	imagerel $unwind$stbi__compute_transparency16
$pdata$stbi__compute_transparency DD imagerel stbi__compute_transparency
	DD	imagerel stbi__compute_transparency+465
	DD	imagerel $unwind$stbi__compute_transparency
$pdata$stbi__create_png_image DD imagerel stbi__create_png_image
	DD	imagerel stbi__create_png_image+1376
	DD	imagerel $unwind$stbi__create_png_image
$pdata$stbi__create_png_image_raw DD imagerel stbi__create_png_image_raw
	DD	imagerel stbi__create_png_image_raw+6384
	DD	imagerel $unwind$stbi__create_png_image_raw
$pdata$stbi__paeth DD imagerel stbi__paeth
	DD	imagerel stbi__paeth+177
	DD	imagerel $unwind$stbi__paeth
$pdata$stbi__check_png_header DD imagerel stbi__check_png_header
	DD	imagerel stbi__check_png_header+278
	DD	imagerel $unwind$stbi__check_png_header
$pdata$stbi__get_chunk_header DD imagerel stbi__get_chunk_header
	DD	imagerel stbi__get_chunk_header+104
	DD	imagerel $unwind$stbi__get_chunk_header
$pdata$stbi_zlib_decode_noheader_buffer DD imagerel $LN5
	DD	imagerel $LN5+240
	DD	imagerel $unwind$stbi_zlib_decode_noheader_buffer
$pdata$stbi_zlib_decode_noheader_malloc DD imagerel $LN7
	DD	imagerel $LN7+306
	DD	imagerel $unwind$stbi_zlib_decode_noheader_malloc
$pdata$stbi_zlib_decode_buffer DD imagerel $LN5
	DD	imagerel $LN5+240
	DD	imagerel $unwind$stbi_zlib_decode_buffer
$pdata$stbi_zlib_decode_malloc_guesssize_headerflag DD imagerel $LN7
	DD	imagerel $LN7+322
	DD	imagerel $unwind$stbi_zlib_decode_malloc_guesssize_headerflag
$pdata$stbi_zlib_decode_malloc DD imagerel $LN3
	DD	imagerel $LN3+62
	DD	imagerel $unwind$stbi_zlib_decode_malloc
$pdata$stbi_zlib_decode_malloc_guesssize DD imagerel $LN7
	DD	imagerel $LN7+319
	DD	imagerel $unwind$stbi_zlib_decode_malloc_guesssize
$pdata$stbi__do_zlib DD imagerel stbi__do_zlib
	DD	imagerel stbi__do_zlib+122
	DD	imagerel $unwind$stbi__do_zlib
$pdata$stbi__parse_zlib DD imagerel stbi__parse_zlib
	DD	imagerel stbi__parse_zlib+473
	DD	imagerel $unwind$stbi__parse_zlib
$pdata$stbi__parse_zlib_header DD imagerel stbi__parse_zlib_header
	DD	imagerel stbi__parse_zlib_header+433
	DD	imagerel $unwind$stbi__parse_zlib_header
$pdata$stbi__parse_uncompressed_block DD imagerel stbi__parse_uncompressed_block
	DD	imagerel stbi__parse_uncompressed_block+882
	DD	imagerel $unwind$stbi__parse_uncompressed_block
$pdata$stbi__compute_huffman_codes DD imagerel stbi__compute_huffman_codes
	DD	imagerel stbi__compute_huffman_codes+2104
	DD	imagerel $unwind$stbi__compute_huffman_codes
$pdata$stbi__parse_huffman_block DD imagerel stbi__parse_huffman_block
	DD	imagerel stbi__parse_huffman_block+1707
	DD	imagerel $unwind$stbi__parse_huffman_block
$pdata$stbi__zexpand DD imagerel stbi__zexpand
	DD	imagerel stbi__zexpand+339
	DD	imagerel $unwind$stbi__zexpand
$pdata$stbi__zhuffman_decode DD imagerel stbi__zhuffman_decode
	DD	imagerel stbi__zhuffman_decode+247
	DD	imagerel $unwind$stbi__zhuffman_decode
$pdata$stbi__zhuffman_decode_slowpath DD imagerel stbi__zhuffman_decode_slowpath
	DD	imagerel stbi__zhuffman_decode_slowpath+496
	DD	imagerel $unwind$stbi__zhuffman_decode_slowpath
$pdata$stbi__zreceive DD imagerel stbi__zreceive
	DD	imagerel stbi__zreceive+158
	DD	imagerel $unwind$stbi__zreceive
$pdata$stbi__fill_bits DD imagerel stbi__fill_bits
	DD	imagerel stbi__fill_bits+265
	DD	imagerel $unwind$stbi__fill_bits
$pdata$stbi__zget8 DD imagerel stbi__zget8
	DD	imagerel stbi__zget8+130
	DD	imagerel $unwind$stbi__zget8
$pdata$stbi__zeof DD imagerel stbi__zeof
	DD	imagerel stbi__zeof+69
	DD	imagerel $unwind$stbi__zeof
$pdata$stbi__zbuild_huffman DD imagerel stbi__zbuild_huffman
	DD	imagerel stbi__zbuild_huffman+1298
	DD	imagerel $unwind$stbi__zbuild_huffman
$pdata$stbi__bit_reverse DD imagerel stbi__bit_reverse
	DD	imagerel stbi__bit_reverse+219
	DD	imagerel $unwind$stbi__bit_reverse
$pdata$stbi__bitreverse16 DD imagerel stbi__bitreverse16
	DD	imagerel stbi__bitreverse16+153
	DD	imagerel $unwind$stbi__bitreverse16
$pdata$stbi__jpeg_info DD imagerel stbi__jpeg_info
	DD	imagerel stbi__jpeg_info+151
	DD	imagerel $unwind$stbi__jpeg_info
$pdata$stbi__jpeg_info_raw DD imagerel stbi__jpeg_info_raw
	DD	imagerel stbi__jpeg_info_raw+186
	DD	imagerel $unwind$stbi__jpeg_info_raw
$pdata$stbi__jpeg_test DD imagerel stbi__jpeg_test
	DD	imagerel stbi__jpeg_test+146
	DD	imagerel $unwind$stbi__jpeg_test
$pdata$stbi__jpeg_load DD imagerel stbi__jpeg_load
	DD	imagerel stbi__jpeg_load+203
	DD	imagerel $unwind$stbi__jpeg_load
$pdata$load_jpeg_image DD imagerel load_jpeg_image
	DD	imagerel load_jpeg_image+4862
	DD	imagerel $unwind$load_jpeg_image
$pdata$stbi__blinn_8x8 DD imagerel stbi__blinn_8x8
	DD	imagerel stbi__blinn_8x8+71
	DD	imagerel $unwind$stbi__blinn_8x8
$pdata$stbi__cleanup_jpeg DD imagerel stbi__cleanup_jpeg
	DD	imagerel stbi__cleanup_jpeg+53
	DD	imagerel $unwind$stbi__cleanup_jpeg
$pdata$stbi__setup_jpeg DD imagerel stbi__setup_jpeg
	DD	imagerel stbi__setup_jpeg+151
	DD	imagerel $unwind$stbi__setup_jpeg
$pdata$stbi__YCbCr_to_RGB_simd DD imagerel stbi__YCbCr_to_RGB_simd
	DD	imagerel stbi__YCbCr_to_RGB_simd+1507
	DD	imagerel $unwind$stbi__YCbCr_to_RGB_simd
$pdata$stbi__YCbCr_to_RGB_row DD imagerel stbi__YCbCr_to_RGB_row
	DD	imagerel stbi__YCbCr_to_RGB_row+474
	DD	imagerel $unwind$stbi__YCbCr_to_RGB_row
$pdata$stbi__resample_row_generic DD imagerel stbi__resample_row_generic
	DD	imagerel stbi__resample_row_generic+152
	DD	imagerel $unwind$stbi__resample_row_generic
$pdata$stbi__resample_row_hv_2_simd DD imagerel stbi__resample_row_hv_2_simd
	DD	imagerel stbi__resample_row_hv_2_simd+1292
	DD	imagerel $unwind$stbi__resample_row_hv_2_simd
$pdata$stbi__resample_row_hv_2 DD imagerel stbi__resample_row_hv_2
	DD	imagerel stbi__resample_row_hv_2+408
	DD	imagerel $unwind$stbi__resample_row_hv_2
$pdata$stbi__resample_row_h_2 DD imagerel stbi__resample_row_h_2
	DD	imagerel stbi__resample_row_h_2+499
	DD	imagerel $unwind$stbi__resample_row_h_2
$pdata$stbi__resample_row_v_2 DD imagerel stbi__resample_row_v_2
	DD	imagerel stbi__resample_row_v_2+132
	DD	imagerel $unwind$stbi__resample_row_v_2
$pdata$resample_row_1 DD imagerel resample_row_1
	DD	imagerel resample_row_1+48
	DD	imagerel $unwind$resample_row_1
$pdata$stbi__decode_jpeg_image DD imagerel stbi__decode_jpeg_image
	DD	imagerel stbi__decode_jpeg_image+526
	DD	imagerel $unwind$stbi__decode_jpeg_image
$pdata$stbi__skip_jpeg_junk_at_end DD imagerel stbi__skip_jpeg_junk_at_end
	DD	imagerel stbi__skip_jpeg_junk_at_end+763
	DD	imagerel $unwind$stbi__skip_jpeg_junk_at_end
$pdata$stbi__decode_jpeg_header DD imagerel stbi__decode_jpeg_header
	DD	imagerel stbi__decode_jpeg_header+498
	DD	imagerel $unwind$stbi__decode_jpeg_header
$pdata$stbi__process_frame_header DD imagerel stbi__process_frame_header
	DD	imagerel stbi__process_frame_header+3336
	DD	imagerel $unwind$stbi__process_frame_header
$pdata$stbi__free_jpeg_components DD imagerel stbi__free_jpeg_components
	DD	imagerel stbi__free_jpeg_components+370
	DD	imagerel $unwind$stbi__free_jpeg_components
$pdata$stbi__process_scan_header DD imagerel stbi__process_scan_header
	DD	imagerel stbi__process_scan_header+1969
	DD	imagerel $unwind$stbi__process_scan_header
$pdata$stbi__process_marker DD imagerel stbi__process_marker
	DD	imagerel stbi__process_marker+4046
	DD	imagerel $unwind$stbi__process_marker
$pdata$stbi__jpeg_finish DD imagerel stbi__jpeg_finish
	DD	imagerel stbi__jpeg_finish+472
	DD	imagerel $unwind$stbi__jpeg_finish
$pdata$stbi__jpeg_dequantize DD imagerel stbi__jpeg_dequantize
	DD	imagerel stbi__jpeg_dequantize+108
	DD	imagerel $unwind$stbi__jpeg_dequantize
$pdata$stbi__parse_entropy_coded_data DD imagerel stbi__parse_entropy_coded_data
	DD	imagerel stbi__parse_entropy_coded_data+3486
	DD	imagerel $unwind$stbi__parse_entropy_coded_data
$pdata$stbi__jpeg_reset DD imagerel stbi__jpeg_reset
	DD	imagerel stbi__jpeg_reset+254
	DD	imagerel $unwind$stbi__jpeg_reset
$pdata$stbi__get_marker DD imagerel stbi__get_marker
	DD	imagerel stbi__get_marker+506
	DD	imagerel $unwind$stbi__get_marker
$pdata$stbi__idct_simd DD imagerel stbi__idct_simd
	DD	imagerel stbi__idct_simd+6495
	DD	imagerel $unwind$stbi__idct_simd
$pdata$stbi__idct_block DD imagerel stbi__idct_block
	DD	imagerel stbi__idct_block+4112
	DD	imagerel $unwind$stbi__idct_block
$pdata$stbi__clamp DD imagerel stbi__clamp
	DD	imagerel stbi__clamp+67
	DD	imagerel $unwind$stbi__clamp
$pdata$stbi__jpeg_decode_block_prog_ac DD imagerel stbi__jpeg_decode_block_prog_ac
	DD	imagerel stbi__jpeg_decode_block_prog_ac+4626
	DD	imagerel $unwind$stbi__jpeg_decode_block_prog_ac
$pdata$stbi__jpeg_decode_block_prog_dc DD imagerel stbi__jpeg_decode_block_prog_dc
	DD	imagerel stbi__jpeg_decode_block_prog_dc+1769
	DD	imagerel $unwind$stbi__jpeg_decode_block_prog_dc
$pdata$stbi__jpeg_decode_block DD imagerel stbi__jpeg_decode_block
	DD	imagerel stbi__jpeg_decode_block+3068
	DD	imagerel $unwind$stbi__jpeg_decode_block
$pdata$stbi__jpeg_get_bit DD imagerel stbi__jpeg_get_bit
	DD	imagerel stbi__jpeg_get_bit+143
	DD	imagerel $unwind$stbi__jpeg_get_bit
$pdata$stbi__jpeg_get_bits DD imagerel stbi__jpeg_get_bits
	DD	imagerel stbi__jpeg_get_bits+213
	DD	imagerel $unwind$stbi__jpeg_get_bits
$pdata$stbi__extend_receive DD imagerel stbi__extend_receive
	DD	imagerel stbi__extend_receive+258
	DD	imagerel $unwind$stbi__extend_receive
$pdata$stbi__jpeg_huff_decode DD imagerel stbi__jpeg_huff_decode
	DD	imagerel stbi__jpeg_huff_decode+704
	DD	imagerel $unwind$stbi__jpeg_huff_decode
$pdata$stbi__grow_buffer_unsafe DD imagerel stbi__grow_buffer_unsafe
	DD	imagerel stbi__grow_buffer_unsafe+806
	DD	imagerel $unwind$stbi__grow_buffer_unsafe
$pdata$stbi__build_fast_ac DD imagerel stbi__build_fast_ac
	DD	imagerel stbi__build_fast_ac+386
	DD	imagerel $unwind$stbi__build_fast_ac
$pdata$stbi__build_huffman DD imagerel stbi__build_huffman
	DD	imagerel stbi__build_huffman+687
	DD	imagerel $unwind$stbi__build_huffman
$pdata$stbi__hdr_to_ldr DD imagerel stbi__hdr_to_ldr
	DD	imagerel stbi__hdr_to_ldr+567
	DD	imagerel $unwind$stbi__hdr_to_ldr
$pdata$stbi__ldr_to_hdr DD imagerel stbi__ldr_to_hdr
	DD	imagerel stbi__ldr_to_hdr+484
	DD	imagerel $unwind$stbi__ldr_to_hdr
$pdata$stbi__convert_format16 DD imagerel stbi__convert_format16
	DD	imagerel stbi__convert_format16+2760
	DD	imagerel $unwind$stbi__convert_format16
$pdata$stbi__compute_y_16 DD imagerel stbi__compute_y_16
	DD	imagerel stbi__compute_y_16+61
	DD	imagerel $unwind$stbi__compute_y_16
$pdata$stbi__convert_format DD imagerel stbi__convert_format
	DD	imagerel stbi__convert_format+2708
	DD	imagerel $unwind$stbi__convert_format
$pdata$stbi__compute_y DD imagerel stbi__compute_y
	DD	imagerel stbi__compute_y+61
	DD	imagerel $unwind$stbi__compute_y
$pdata$stbi__get32le DD imagerel stbi__get32le
	DD	imagerel stbi__get32le+71
	DD	imagerel $unwind$stbi__get32le
$pdata$stbi__get16le DD imagerel stbi__get16le
	DD	imagerel stbi__get16le+391
	DD	imagerel $unwind$stbi__get16le
$pdata$stbi__get32be DD imagerel stbi__get32be
	DD	imagerel stbi__get32be+71
	DD	imagerel $unwind$stbi__get32be
$pdata$stbi__get16be DD imagerel stbi__get16be
	DD	imagerel stbi__get16be+389
	DD	imagerel $unwind$stbi__get16be
$pdata$stbi__getn DD imagerel stbi__getn
	DD	imagerel stbi__getn+355
	DD	imagerel $unwind$stbi__getn
$pdata$stbi__skip DD imagerel stbi__skip
	DD	imagerel stbi__skip+220
	DD	imagerel $unwind$stbi__skip
$pdata$stbi__at_eof DD imagerel stbi__at_eof
	DD	imagerel stbi__at_eof+131
	DD	imagerel $unwind$stbi__at_eof
$pdata$stbi__get8 DD imagerel stbi__get8
	DD	imagerel stbi__get8+183
	DD	imagerel $unwind$stbi__get8
$pdata$stbi__refill_buffer DD imagerel stbi__refill_buffer
	DD	imagerel stbi__refill_buffer+245
	DD	imagerel $unwind$stbi__refill_buffer
$pdata$stbi_hdr_to_ldr_scale DD imagerel $LN3
	DD	imagerel $LN3+51
	DD	imagerel $unwind$stbi_hdr_to_ldr_scale
$pdata$stbi_hdr_to_ldr_gamma DD imagerel $LN3
	DD	imagerel $LN3+51
	DD	imagerel $unwind$stbi_hdr_to_ldr_gamma
$pdata$stbi_ldr_to_hdr_scale DD imagerel $LN3
	DD	imagerel $LN3+43
	DD	imagerel $unwind$stbi_ldr_to_hdr_scale
$pdata$stbi_ldr_to_hdr_gamma DD imagerel $LN3
	DD	imagerel $LN3+43
	DD	imagerel $unwind$stbi_ldr_to_hdr_gamma
$pdata$stbi_is_hdr_from_callbacks DD imagerel $LN3
	DD	imagerel $LN3+155
	DD	imagerel $unwind$stbi_is_hdr_from_callbacks
$pdata$stbi_is_hdr_from_file DD imagerel $LN3
	DD	imagerel $LN3+187
	DD	imagerel $unwind$stbi_is_hdr_from_file
$pdata$stbi_is_hdr DD imagerel $LN4
	DD	imagerel $LN4+96
	DD	imagerel $unwind$stbi_is_hdr
$pdata$stbi_is_hdr_from_memory DD imagerel $LN3
	DD	imagerel $LN3+154
	DD	imagerel $unwind$stbi_is_hdr_from_memory
$pdata$stbi_loadf_from_file DD imagerel $LN3
	DD	imagerel $LN3+192
	DD	imagerel $unwind$stbi_loadf_from_file
$pdata$stbi_loadf DD imagerel $LN6
	DD	imagerel $LN6+173
	DD	imagerel $unwind$stbi_loadf
$pdata$stbi_loadf_from_callbacks DD imagerel $LN3
	DD	imagerel $LN3+200
	DD	imagerel $unwind$stbi_loadf_from_callbacks
$pdata$stbi_loadf_from_memory DD imagerel $LN3
	DD	imagerel $LN3+199
	DD	imagerel $unwind$stbi_loadf_from_memory
$pdata$stbi__loadf_main DD imagerel stbi__loadf_main
	DD	imagerel stbi__loadf_main+459
	DD	imagerel $unwind$stbi__loadf_main
$pdata$stbi_load_gif_from_memory DD imagerel $LN6
	DD	imagerel $LN6+371
	DD	imagerel $unwind$stbi_load_gif_from_memory
$pdata$stbi_load_from_callbacks DD imagerel $LN3
	DD	imagerel $LN3+200
	DD	imagerel $unwind$stbi_load_from_callbacks
$pdata$stbi_load_from_memory DD imagerel $LN3
	DD	imagerel $LN3+199
	DD	imagerel $unwind$stbi_load_from_memory
$pdata$stbi_load_16_from_callbacks DD imagerel $LN3
	DD	imagerel $LN3+200
	DD	imagerel $unwind$stbi_load_16_from_callbacks
$pdata$stbi_load_16_from_memory DD imagerel $LN3
	DD	imagerel $LN3+199
	DD	imagerel $unwind$stbi_load_16_from_memory
$pdata$stbi_load_16 DD imagerel $LN6
	DD	imagerel $LN6+173
	DD	imagerel $unwind$stbi_load_16
$pdata$stbi_load_from_file_16 DD imagerel $LN4
	DD	imagerel $LN4+257
	DD	imagerel $unwind$stbi_load_from_file_16
$pdata$stbi_load_from_file DD imagerel $LN4
	DD	imagerel $LN4+257
	DD	imagerel $unwind$stbi_load_from_file
$pdata$stbi_load DD imagerel $LN6
	DD	imagerel $LN6+173
	DD	imagerel $unwind$stbi_load
$pdata$stbi__fopen DD imagerel stbi__fopen
	DD	imagerel stbi__fopen+143
	DD	imagerel $unwind$stbi__fopen
$pdata$stbi__float_postprocess DD imagerel stbi__float_postprocess
	DD	imagerel stbi__float_postprocess+195
	DD	imagerel $unwind$stbi__float_postprocess
$pdata$stbi__load_and_postprocess_16bit DD imagerel stbi__load_and_postprocess_16bit
	DD	imagerel stbi__load_and_postprocess_16bit+540
	DD	imagerel $unwind$stbi__load_and_postprocess_16bit
$pdata$stbi__load_and_postprocess_8bit DD imagerel stbi__load_and_postprocess_8bit
	DD	imagerel stbi__load_and_postprocess_8bit+534
	DD	imagerel $unwind$stbi__load_and_postprocess_8bit
$pdata$stbi__vertical_flip_slices DD imagerel stbi__vertical_flip_slices
	DD	imagerel stbi__vertical_flip_slices+147
	DD	imagerel $unwind$stbi__vertical_flip_slices
$pdata$stbi__vertical_flip DD imagerel stbi__vertical_flip
	DD	imagerel stbi__vertical_flip+550
	DD	imagerel $unwind$stbi__vertical_flip
$pdata$stbi__convert_8_to_16 DD imagerel stbi__convert_8_to_16
	DD	imagerel stbi__convert_8_to_16+227
	DD	imagerel $unwind$stbi__convert_8_to_16
$pdata$stbi__convert_16_to_8 DD imagerel stbi__convert_16_to_8
	DD	imagerel stbi__convert_16_to_8+212
	DD	imagerel $unwind$stbi__convert_16_to_8
$pdata$stbi__load_main DD imagerel stbi__load_main
	DD	imagerel stbi__load_main+895
	DD	imagerel $unwind$stbi__load_main
$pdata$stbi_set_flip_vertically_on_load_thread DD imagerel $LN3
	DD	imagerel $LN3+79
	DD	imagerel $unwind$stbi_set_flip_vertically_on_load_thread
$pdata$stbi_set_flip_vertically_on_load DD imagerel $LN3
	DD	imagerel $LN3+37
	DD	imagerel $unwind$stbi_set_flip_vertically_on_load
$pdata$stbi_image_free DD imagerel $LN3
	DD	imagerel $LN3+40
	DD	imagerel $unwind$stbi_image_free
$pdata$stbi__mul2shorts_valid DD imagerel stbi__mul2shorts_valid
	DD	imagerel stbi__mul2shorts_valid+295
	DD	imagerel $unwind$stbi__mul2shorts_valid
$pdata$stbi__addints_valid DD imagerel stbi__addints_valid
	DD	imagerel stbi__addints_valid+188
	DD	imagerel $unwind$stbi__addints_valid
$pdata$stbi__malloc_mad4 DD imagerel stbi__malloc_mad4
	DD	imagerel stbi__malloc_mad4+113
	DD	imagerel $unwind$stbi__malloc_mad4
$pdata$stbi__malloc_mad3 DD imagerel stbi__malloc_mad3
	DD	imagerel stbi__malloc_mad3+100
	DD	imagerel $unwind$stbi__malloc_mad3
$pdata$stbi__malloc_mad2 DD imagerel stbi__malloc_mad2
	DD	imagerel stbi__malloc_mad2+85
	DD	imagerel $unwind$stbi__malloc_mad2
$pdata$stbi__mad4sizes_valid DD imagerel stbi__mad4sizes_valid
	DD	imagerel stbi__mad4sizes_valid+167
	DD	imagerel $unwind$stbi__mad4sizes_valid
$pdata$stbi__mad3sizes_valid DD imagerel stbi__mad3sizes_valid
	DD	imagerel stbi__mad3sizes_valid+133
	DD	imagerel $unwind$stbi__mad3sizes_valid
$pdata$stbi__mad2sizes_valid DD imagerel stbi__mad2sizes_valid
	DD	imagerel stbi__mad2sizes_valid+99
	DD	imagerel $unwind$stbi__mad2sizes_valid
$pdata$stbi__mul2sizes_valid DD imagerel stbi__mul2sizes_valid
	DD	imagerel stbi__mul2sizes_valid+101
	DD	imagerel $unwind$stbi__mul2sizes_valid
$pdata$stbi__addsizes_valid DD imagerel stbi__addsizes_valid
	DD	imagerel stbi__addsizes_valid+79
	DD	imagerel $unwind$stbi__addsizes_valid
$pdata$stbi__malloc DD imagerel stbi__malloc
	DD	imagerel stbi__malloc+39
	DD	imagerel $unwind$stbi__malloc
$pdata$stbi__err DD imagerel stbi__err
	DD	imagerel stbi__err+58
	DD	imagerel $unwind$stbi__err
$pdata$stbi__rewind DD imagerel stbi__rewind
	DD	imagerel stbi__rewind+76
	DD	imagerel $unwind$stbi__rewind
$pdata$stbi__start_file DD imagerel stbi__start_file
	DD	imagerel stbi__start_file+56
	DD	imagerel $unwind$stbi__start_file
$pdata$stbi__stdio_eof DD imagerel stbi__stdio_eof
	DD	imagerel stbi__stdio_eof+80
	DD	imagerel $unwind$stbi__stdio_eof
$pdata$stbi__stdio_skip DD imagerel stbi__stdio_skip
	DD	imagerel stbi__stdio_skip+91
	DD	imagerel $unwind$stbi__stdio_skip
$pdata$stbi__stdio_read DD imagerel stbi__stdio_read
	DD	imagerel stbi__stdio_read+67
	DD	imagerel $unwind$stbi__stdio_read
$pdata$stbi__start_callbacks DD imagerel stbi__start_callbacks
	DD	imagerel stbi__start_callbacks+196
	DD	imagerel $unwind$stbi__start_callbacks
$pdata$stbi__start_mem DD imagerel stbi__start_mem
	DD	imagerel stbi__start_mem+164
	DD	imagerel $unwind$stbi__start_mem
$pdata$stbi__sse2_available DD imagerel stbi__sse2_available
	DD	imagerel stbi__sse2_available+69
	DD	imagerel $unwind$stbi__sse2_available
$pdata$stbi__cpuid3 DD imagerel stbi__cpuid3
	DD	imagerel stbi__cpuid3+132
	DD	imagerel $unwind$stbi__cpuid3
$pdata$TryGetFrame2 DD imagerel $LN6
	DD	imagerel $LN6+193
	DD	imagerel $unwind$TryGetFrame2
$pdata$stbi_failure_reason DD imagerel $LN3
	DD	imagerel $LN3+47
	DD	imagerel $unwind$stbi_failure_reason
?invalid_chunk@?BP@??stbi__parse_png_file@@9@9 DB 'XXXX PNG chunk not kno'
	DB	'wn', 00H					; `stbi__parse_png_file'::`31'::invalid_chunk
	ORG $+3
stbi__h2l_scale_i DD 03f800000r			; 1
stbi__h2l_gamma_i DD 03ee8ba2er			; 0.454545
stbi__l2h_gamma DD 0400ccccdr			; 2.2
?mul_table@?1??stbi__shiftsigned@@9@9 DD 00H		; `stbi__shiftsigned'::`2'::mul_table
	DD	0ffH
	DD	055H
	DD	049H
	DD	011H
	DD	021H
	DD	041H
	DD	081H
	DD	01H
stbi__l2h_scale DD 03f800000r			; 1
?shift_table@?1??stbi__shiftsigned@@9@9 DD 00H		; `stbi__shiftsigned'::`2'::shift_table
	DD	00H
	DD	00H
	DD	01H
	DD	00H
	DD	02H
	DD	04H
	DD	06H
	DD	00H
first_row_filter DB 00H
	DB	01H
	DB	00H
	DB	05H
	DB	06H
	ORG $+7
stbi__stdio_callbacks DQ FLAT:stbi__stdio_read
	DQ	FLAT:stbi__stdio_skip
	DQ	FLAT:stbi__stdio_eof
_DATA	ENDS
;	COMDAT xdata
xdata	SEGMENT
$unwind$NugRand DD 020a01H
	DD	07006320aH
xdata	ENDS
;	COMDAT xdata
xdata	SEGMENT
$unwind$UAbs DD	020a01H
	DD	07006520aH
xdata	ENDS
xdata	SEGMENT
$unwind$NugHash DD 020a01H
	DD	07006720aH
$unwind$GetFrame DD 020f01H
	DD	0700b520fH
$unwind$TryGetFrame DD 022f19H
	DD	07006920aH
	DD	imagerel __GSHandlerCheck
	DD	048H
$unwind$AddFrameData DD 020f01H
	DD	0700b920fH
$unwind$AddLocVal2 DD 020a01H
	DD	07006720aH
$unwind$GetLocVal2 DD 020a01H
	DD	07006520aH
$unwind$AddUintVal2 DD 020e01H
	DD	0700ab20eH
$unwind$GetUintVal2 DD 020a01H
	DD	07006b20aH
$unwind$stbi_is_16_bit_from_callbacks DD 033d19H
	DD	0260112H
	DD	0700bH
	DD	imagerel __GSHandlerCheck
	DD	0120H
$unwind$stbi_is_16_bit_from_memory DD 033c19H
	DD	0260111H
	DD	0700aH
	DD	imagerel __GSHandlerCheck
	DD	0120H
$unwind$stbi_info_from_callbacks DD 034719H
	DD	026011cH
	DD	07015H
	DD	imagerel __GSHandlerCheck
	DD	0120H
$unwind$stbi_info_from_memory DD 034619H
	DD	026011bH
	DD	07014H
	DD	imagerel __GSHandlerCheck
	DD	0120H
$unwind$stbi_is_16_bit_from_file DD 033819H
	DD	028010dH
	DD	07006H
	DD	imagerel __GSHandlerCheck
	DD	0130H
$unwind$stbi_is_16_bit DD 020a01H
	DD	07006520aH
$unwind$stbi_info_from_file DD 034719H
	DD	028011cH
	DD	07015H
	DD	imagerel __GSHandlerCheck
	DD	0130H
$unwind$stbi_info DD 021901H
	DD	070155219H
$unwind$stbi__is_16_main DD 020a01H
	DD	07006320aH
$unwind$stbi__info_main DD 021901H
	DD	070153219H
$unwind$stbi__pnm_is16 DD 020a01H
	DD	07006320aH
$unwind$stbi__pnm_info DD 034719H
	DD	012011cH
	DD	07015H
	DD	imagerel __GSHandlerCheck
	DD	080H
$unwind$stbi__pnm_getinteger DD 020f01H
	DD	0700b720fH
$unwind$stbi__pnm_isdigit DD 020901H
	DD	070055209H
$unwind$stbi__pnm_skip_whitespace DD 020f01H
	DD	0700b920fH
$unwind$stbi__pnm_isspace DD 020901H
	DD	070055209H
$unwind$stbi__pnm_load DD 021901H
	DD	07015d219H
$unwind$stbi__pnm_test DD 020a01H
	DD	07006520aH
$unwind$stbi__pic_info DD 034719H
	DD	018011cH
	DD	07015H
	DD	imagerel __GSHandlerCheck
	DD	0b8H
$unwind$stbi__psd_is16 DD 020a01H
	DD	07006520aH
$unwind$stbi__psd_info DD 023e19H
	DD	07015b219H
	DD	imagerel __GSHandlerCheck
	DD	050H
$unwind$stbi__bmp_info DD 024419H
	DD	07015f21cH
	DD	imagerel __GSHandlerCheck
	DD	078H
$unwind$stbi__hdr_info DD 034719H
	DD	092011cH
	DD	07015H
	DD	imagerel __GSHandlerCheck
	DD	0480H
$unwind$stbi__hdr_load DD 034719H
	DD	0b0011cH
	DD	07015H
	DD	imagerel __GSHandlerCheck
	DD	0578H
$unwind$stbi__hdr_convert DD 021401H
	DD	070105214H
$unwind$stbi__hdr_gettoken DD 020f01H
	DD	0700b720fH
$unwind$stbi__hdr_test DD 020a01H
	DD	07006520aH
$unwind$stbi__hdr_test_core DD 020f01H
	DD	0700b520fH
$unwind$stbi__gif_info DD 021901H
	DD	070153219H
$unwind$stbi__gif_load DD 034d19H
	DD	0111c0122H
	DD	07015H
	DD	imagerel __GSHandlerCheck
	DD	088d0H
$unwind$stbi__load_gif_main DD 044e19H
	DD	011230123H
	DD	060157016H
	DD	imagerel __GSHandlerCheck
	DD	08908H
$unwind$stbi__load_gif_main_outofmem DD 021401H
	DD	070105214H
$unwind$stbi__gif_load_next DD 041d01H
	DD	01b011dH
	DD	060157016H
$unwind$stbi__process_gif_raster DD 031201H
	DD	0160112H
	DD	0700bH
$unwind$stbi__out_gif_code DD 020f01H
	DD	0700b720fH
$unwind$stbi__gif_info_raw DD 021901H
	DD	070155219H
$unwind$stbi__gif_header DD 021901H
	DD	070157219H
$unwind$stbi__gif_parse_colortable DD 021901H
	DD	070157219H
$unwind$stbi__gif_test DD 020a01H
	DD	07006520aH
$unwind$stbi__gif_test_raw DD 020a01H
	DD	07006720aH
$unwind$stbi__pic_test DD 020a01H
	DD	07006520aH
$unwind$stbi__pic_load DD 034719H
	DD	018011cH
	DD	07015H
	DD	imagerel __GSHandlerCheck
	DD	0b0H
$unwind$stbi__pic_load_core DD 034619H
	DD	02e011bH
	DD	07014H
	DD	imagerel __GSHandlerCheck
	DD	0160H
$unwind$stbi__copyval DD 021301H
	DD	0700f5213H
$unwind$stbi__readval DD 021301H
	DD	0700f9213H
$unwind$stbi__pic_test_core DD 020a01H
	DD	07006520aH
$unwind$stbi__pic_is4 DD 020f01H
	DD	0700b520fH
$unwind$stbi__psd_load DD 031c01H
	DD	026011cH
	DD	07015H
$unwind$stbi__psd_decode_rle DD 021401H
	DD	070107214H
$unwind$stbi__psd_test DD 020a01H
	DD	07006520aH
$unwind$stbi__tga_load DD 034719H
	DD	032011cH
	DD	07015H
	DD	imagerel __GSHandlerCheck
	DD	0180H
$unwind$stbi__tga_read_rgb16 DD 020f01H
	DD	0700b720fH
$unwind$stbi__tga_test DD 020a01H
	DD	07006720aH
$unwind$stbi__tga_info DD 021901H
	DD	07015b219H
$unwind$stbi__tga_get_comp DD 021201H
	DD	0700e5212H
$unwind$stbi__bmp_load DD 034719H
	DD	0bc011cH
	DD	07015H
	DD	imagerel __GSHandlerCheck
	DD	05d0H
$unwind$stbi__bmp_parse_header DD 031201H
	DD	0120112H
	DD	0700bH
$unwind$stbi__bmp_set_mask_defaults DD 020e01H
	DD	0700a320eH
$unwind$stbi__shiftsigned DD 021201H
	DD	0700e3212H
$unwind$stbi__bitcount DD 020901H
	DD	070053209H
$unwind$stbi__high_bit DD 020901H
	DD	070055209H
$unwind$stbi__bmp_test DD 020a01H
	DD	07006520aH
$unwind$stbi__bmp_test_raw DD 020a01H
	DD	07006720aH
$unwind$stbi__png_is16 DD 023219H
	DD	07006d20aH
	DD	imagerel __GSHandlerCheck
	DD	060H
$unwind$stbi__png_info DD 024119H
	DD	07015d219H
	DD	imagerel __GSHandlerCheck
	DD	060H
$unwind$stbi__png_info_raw DD 021901H
	DD	070153219H
$unwind$stbi__png_test DD 020a01H
	DD	07006520aH
$unwind$stbi__png_load DD 024419H
	DD	07015f21cH
	DD	imagerel __GSHandlerCheck
	DD	070H
$unwind$stbi__do_png DD 021901H
	DD	070159219H
$unwind$stbi__parse_png_file DD 034119H
	DD	0aa0116H
	DD	0700fH
	DD	imagerel __GSHandlerCheck
	DD	0548H
$unwind$stbi__de_iphone DD 020a01H
	DD	07006920aH
$unwind$stbi_convert_iphone_png_to_rgb_thread DD 020901H
	DD	070053209H
$unwind$stbi_set_unpremultiply_on_load_thread DD 020901H
	DD	070053209H
$unwind$stbi_convert_iphone_png_to_rgb DD 020901H
	DD	070053209H
$unwind$stbi_set_unpremultiply_on_load DD 020901H
	DD	070053209H
$unwind$stbi__expand_png_palette DD 021901H
	DD	070159219H
$unwind$stbi__compute_transparency16 DD 021401H
	DD	070107214H
$unwind$stbi__compute_transparency DD 021401H
	DD	070107214H
$unwind$stbi__create_png_image DD 043601H
	DD	031011dH
	DD	060157016H
$unwind$stbi__create_png_image_raw DD 041d01H
	DD	019011dH
	DD	060157016H
$unwind$stbi__paeth DD 021201H
	DD	0700e5212H
$unwind$stbi__check_png_header DD 020a01H
	DD	07006520aH
$unwind$stbi__get_chunk_header DD 022001H
	DD	07006720aH
$unwind$stbi_zlib_decode_noheader_buffer DD 034c19H
	DD	020c0121H
	DD	07014H
	DD	imagerel __GSHandlerCheck
	DD	01050H
$unwind$stbi_zlib_decode_noheader_malloc DD 034719H
	DD	020c011cH
	DD	0700fH
	DD	imagerel __GSHandlerCheck
	DD	01058H
$unwind$stbi_zlib_decode_buffer DD 034c19H
	DD	020c0121H
	DD	07014H
	DD	imagerel __GSHandlerCheck
	DD	01050H
$unwind$stbi_zlib_decode_malloc_guesssize_headerflag DD 034c19H
	DD	020c0121H
	DD	07014H
	DD	imagerel __GSHandlerCheck
	DD	01058H
$unwind$stbi_zlib_decode_malloc DD 021301H
	DD	0700f3213H
$unwind$stbi_zlib_decode_malloc_guesssize DD 034c19H
	DD	020c0121H
	DD	07014H
	DD	imagerel __GSHandlerCheck
	DD	01058H
$unwind$stbi__do_zlib DD 021901H
	DD	070153219H
$unwind$stbi__parse_zlib DD 020e01H
	DD	0700a720eH
$unwind$stbi__parse_zlib_header DD 020a01H
	DD	07006b20aH
$unwind$stbi__parse_uncompressed_block DD 032401H
	DD	07007e20bH
	DD	06006H
$unwind$stbi__compute_huffman_codes DD 033819H
	DD	015c010dH
	DD	07006H
	DD	imagerel __GSHandlerCheck
	DD	0ad0H
$unwind$stbi__parse_huffman_block DD 030d01H
	DD	01c010dH
	DD	07006H
$unwind$stbi__zexpand DD 021401H
	DD	070107214H
$unwind$stbi__zhuffman_decode DD 020f01H
	DD	0700b720fH
$unwind$stbi__zhuffman_decode_slowpath DD 020f01H
	DD	0700b920fH
$unwind$stbi__zreceive DD 020e01H
	DD	0700a520eH
$unwind$stbi__fill_bits DD 020a01H
	DD	07006720aH
$unwind$stbi__zget8 DD 020a01H
	DD	07006520aH
$unwind$stbi__zeof DD 020a01H
	DD	07006520aH
$unwind$stbi__zbuild_huffman DD 034219H
	DD	0280117H
	DD	07010H
	DD	imagerel __GSHandlerCheck
	DD	0130H
$unwind$stbi__bit_reverse DD 020d01H
	DD	07009520dH
$unwind$stbi__bitreverse16 DD 020901H
	DD	070053209H
$unwind$stbi__jpeg_info DD 021901H
	DD	070155219H
$unwind$stbi__jpeg_info_raw DD 021901H
	DD	070155219H
$unwind$stbi__jpeg_test DD 020a01H
	DD	07006520aH
$unwind$stbi__jpeg_load DD 021901H
	DD	070159219H
$unwind$load_jpeg_image DD 034719H
	DD	044011cH
	DD	07015H
	DD	imagerel __GSHandlerCheck
	DD	0218H
$unwind$stbi__blinn_8x8 DD 020d01H
	DD	07009520dH
$unwind$stbi__cleanup_jpeg DD 020a01H
	DD	07006320aH
$unwind$stbi__setup_jpeg DD 020a01H
	DD	07006320aH
$unwind$stbi__YCbCr_to_RGB_simd DD 031c01H
	DD	04c011cH
	DD	07015H
$unwind$stbi__YCbCr_to_RGB_row DD 021901H
	DD	070157219H
$unwind$stbi__resample_row_generic DD 021901H
	DD	070155219H
$unwind$stbi__resample_row_hv_2_simd DD 031c01H
	DD	038011cH
	DD	07015H
$unwind$stbi__resample_row_hv_2 DD 021901H
	DD	070155219H
$unwind$stbi__resample_row_h_2 DD 021901H
	DD	070157219H
$unwind$stbi__resample_row_v_2 DD 021901H
	DD	070155219H
$unwind$resample_row_1 DD 021901H
	DD	070153219H
$unwind$stbi__decode_jpeg_image DD 020a01H
	DD	07006520aH
$unwind$stbi__skip_jpeg_junk_at_end DD 020a01H
	DD	07006d20aH
$unwind$stbi__decode_jpeg_header DD 020e01H
	DD	0700a720eH
$unwind$stbi__process_frame_header DD 020e01H
	DD	0700ad20eH
$unwind$stbi__free_jpeg_components DD 021301H
	DD	0700f5213H
$unwind$stbi__process_scan_header DD 020d01H
	DD	07006f20dH
$unwind$stbi__process_marker DD 033c19H
	DD	02a0111H
	DD	0700aH
	DD	imagerel __GSHandlerCheck
	DD	0140H
$unwind$stbi__jpeg_finish DD 020a01H
	DD	07006720aH
$unwind$stbi__jpeg_dequantize DD 020f01H
	DD	0700b520fH
$unwind$stbi__parse_entropy_coded_data DD 033819H
	DD	044010dH
	DD	07006H
	DD	imagerel __GSHandlerCheck
	DD	0218H
$unwind$stbi__jpeg_reset DD 020a01H
	DD	07006520aH
$unwind$stbi__get_marker DD 020a01H
	DD	07006720aH
$unwind$stbi__idct_simd DD 031601H
	DD	01520116H
	DD	0700fH
$unwind$stbi__idct_block DD 034119H
	DD	0460116H
	DD	0700fH
	DD	imagerel __GSHandlerCheck
	DD	0220H
$unwind$stbi__clamp DD 020901H
	DD	070053209H
$unwind$stbi__jpeg_decode_block_prog_ac DD 031c01H
	DD	028011cH
	DD	07015H
$unwind$stbi__jpeg_decode_block_prog_dc DD 031c01H
	DD	012011cH
	DD	07015H
$unwind$stbi__jpeg_decode_block DD 031c01H
	DD	01e011cH
	DD	07015H
$unwind$stbi__jpeg_get_bit DD 020a01H
	DD	07006520aH
$unwind$stbi__jpeg_get_bits DD 020e01H
	DD	0700a520eH
$unwind$stbi__extend_receive DD 020e01H
	DD	0700a520eH
$unwind$stbi__jpeg_huff_decode DD 020f01H
	DD	0700b920fH
$unwind$stbi__grow_buffer_unsafe DD 020a01H
	DD	07006b20aH
$unwind$stbi__build_fast_ac DD 020f01H
	DD	0700b920fH
$unwind$stbi__build_huffman DD 020f01H
	DD	0700b720fH
$unwind$stbi__hdr_to_ldr DD 021801H
	DD	070149218H
$unwind$stbi__ldr_to_hdr DD 021801H
	DD	070149218H
$unwind$stbi__convert_format16 DD 021801H
	DD	07014d218H
$unwind$stbi__compute_y_16 DD 021201H
	DD	0700e3212H
$unwind$stbi__convert_format DD 021801H
	DD	07014d218H
$unwind$stbi__compute_y DD 021201H
	DD	0700e3212H
$unwind$stbi__get32le DD 020a01H
	DD	07006520aH
$unwind$stbi__get16le DD 020a01H
	DD	07006520aH
$unwind$stbi__get32be DD 020a01H
	DD	07006520aH
$unwind$stbi__get16be DD 020a01H
	DD	07006520aH
$unwind$stbi__getn DD 031501H
	DD	070116215H
	DD	06010H
$unwind$stbi__skip DD 020e01H
	DD	0700a520eH
$unwind$stbi__at_eof DD 020a01H
	DD	07006520aH
$unwind$stbi__get8 DD 020a01H
	DD	07006520aH
$unwind$stbi__refill_buffer DD 020a01H
	DD	07006520aH
$unwind$stbi_hdr_to_ldr_scale DD 020b01H
	DD	07007320bH
$unwind$stbi_hdr_to_ldr_gamma DD 020b01H
	DD	07007320bH
$unwind$stbi_ldr_to_hdr_scale DD 020b01H
	DD	07007320bH
$unwind$stbi_ldr_to_hdr_gamma DD 020b01H
	DD	07007320bH
$unwind$stbi_is_hdr_from_callbacks DD 033d19H
	DD	0260112H
	DD	0700bH
	DD	imagerel __GSHandlerCheck
	DD	0120H
$unwind$stbi_is_hdr_from_file DD 033819H
	DD	028010dH
	DD	07006H
	DD	imagerel __GSHandlerCheck
	DD	0130H
$unwind$stbi_is_hdr DD 020a01H
	DD	07006520aH
$unwind$stbi_is_hdr_from_memory DD 033c19H
	DD	0260111H
	DD	0700aH
	DD	imagerel __GSHandlerCheck
	DD	0120H
$unwind$stbi_loadf_from_file DD 034719H
	DD	028011cH
	DD	07015H
	DD	imagerel __GSHandlerCheck
	DD	0130H
$unwind$stbi_loadf DD 021901H
	DD	070159219H
$unwind$stbi_loadf_from_callbacks DD 034719H
	DD	028011cH
	DD	07015H
	DD	imagerel __GSHandlerCheck
	DD	0130H
$unwind$stbi_loadf_from_memory DD 034619H
	DD	028011bH
	DD	07014H
	DD	imagerel __GSHandlerCheck
	DD	0130H
$unwind$stbi__loadf_main DD 034719H
	DD	012011cH
	DD	07015H
	DD	imagerel __GSHandlerCheck
	DD	088H
$unwind$stbi_load_gif_from_memory DD 034619H
	DD	02c011bH
	DD	07014H
	DD	imagerel __GSHandlerCheck
	DD	0158H
$unwind$stbi_load_from_callbacks DD 034719H
	DD	028011cH
	DD	07015H
	DD	imagerel __GSHandlerCheck
	DD	0130H
$unwind$stbi_load_from_memory DD 034619H
	DD	028011bH
	DD	07014H
	DD	imagerel __GSHandlerCheck
	DD	0130H
$unwind$stbi_load_16_from_callbacks DD 034719H
	DD	028011cH
	DD	07015H
	DD	imagerel __GSHandlerCheck
	DD	0130H
$unwind$stbi_load_16_from_memory DD 034619H
	DD	028011bH
	DD	07014H
	DD	imagerel __GSHandlerCheck
	DD	0130H
$unwind$stbi_load_16 DD 021901H
	DD	070159219H
$unwind$stbi_load_from_file_16 DD 034719H
	DD	02a011cH
	DD	07015H
	DD	imagerel __GSHandlerCheck
	DD	0140H
$unwind$stbi_load_from_file DD 034719H
	DD	02a011cH
	DD	07015H
	DD	imagerel __GSHandlerCheck
	DD	0140H
$unwind$stbi_load DD 021901H
	DD	070159219H
$unwind$stbi__fopen DD 023419H
	DD	0700b920fH
	DD	imagerel __GSHandlerCheck
	DD	040H
$unwind$stbi__float_postprocess DD 021901H
	DD	070155219H
$unwind$stbi__load_and_postprocess_16bit DD 034719H
	DD	014011cH
	DD	07015H
	DD	imagerel __GSHandlerCheck
	DD	090H
$unwind$stbi__load_and_postprocess_8bit DD 034719H
	DD	014011cH
	DD	07015H
	DD	imagerel __GSHandlerCheck
	DD	090H
$unwind$stbi__vertical_flip_slices DD 021801H
	DD	070145218H
$unwind$stbi__vertical_flip DD 044719H
	DD	0113011cH
	DD	060147015H
	DD	imagerel __GSHandlerCheck
	DD	0880H
$unwind$stbi__convert_8_to_16 DD 021801H
	DD	070147218H
$unwind$stbi__convert_16_to_8 DD 021801H
	DD	070147218H
$unwind$stbi__load_main DD 021901H
	DD	07015b219H
$unwind$stbi_set_flip_vertically_on_load_thread DD 020901H
	DD	070053209H
$unwind$stbi_set_flip_vertically_on_load DD 020901H
	DD	070053209H
$unwind$stbi_image_free DD 020a01H
	DD	07006320aH
$unwind$stbi__mul2shorts_valid DD 020f01H
	DD	0700b720fH
$unwind$stbi__addints_valid DD 020d01H
	DD	07009520dH
$unwind$stbi__malloc_mad4 DD 021701H
	DD	070135217H
$unwind$stbi__malloc_mad3 DD 021701H
	DD	070133217H
$unwind$stbi__malloc_mad2 DD 021201H
	DD	0700e3212H
$unwind$stbi__mad4sizes_valid DD 021701H
	DD	070135217H
$unwind$stbi__mad3sizes_valid DD 021701H
	DD	070135217H
$unwind$stbi__mad2sizes_valid DD 021201H
	DD	0700e5212H
$unwind$stbi__mul2sizes_valid DD 020d01H
	DD	07009520dH
$unwind$stbi__addsizes_valid DD 020d01H
	DD	07009520dH
$unwind$stbi__malloc DD 020a01H
	DD	07006320aH
$unwind$stbi__err DD 020a01H
	DD	07006320aH
$unwind$stbi__rewind DD 020a01H
	DD	07006320aH
$unwind$stbi__start_file DD 020f01H
	DD	0700b320fH
$unwind$stbi__stdio_eof DD 020a01H
	DD	07006520aH
$unwind$stbi__stdio_skip DD 020e01H
	DD	0700a520eH
$unwind$stbi__stdio_read DD 021401H
	DD	070103214H
$unwind$stbi__start_callbacks DD 031501H
	DD	070116215H
	DD	06010H
$unwind$stbi__start_mem DD 021401H
	DD	070105214H
$unwind$stbi__sse2_available DD 020601H
	DD	070025206H
$unwind$stbi__cpuid3 DD 032719H
	DD	07003c207H
	DD	03002H
	DD	imagerel __GSHandlerCheck
	DD	050H
$unwind$TryGetFrame2 DD 023419H
	DD	0700bb20fH
	DD	imagerel __GSHandlerCheck
	DD	050H
$unwind$stbi_failure_reason DD 020601H
	DD	070023206H
_volmd	DD	0ffffffffH
	DDSymXIndex: 	FLAT:TryGetFrame2
	DD	02fH
	DD	0aeH
_volmd	DD	0ffffffffH
	DDSymXIndex: 	FLAT:stbi__cpuid3
	DD	022H
	DD	070H
_volmd	DD	0ffffffffH
	DDSymXIndex: 	FLAT:stbi__vertical_flip
	DD	03fH
	DD	020cH
_volmd	DD	0ffffffffH
	DDSymXIndex: 	FLAT:stbi__load_and_postprocess_8bit
	DD	03fH
	DD	01fdH
_volmd	DD	0ffffffffH
	DDSymXIndex: 	FLAT:stbi__load_and_postprocess_16bit
	DD	03fH
	DD	0203H
_volmd	DD	0ffffffffH
	DDSymXIndex: 	FLAT:stbi__fopen
	DD	02fH
	DD	07cH
_volmd	DD	0ffffffffH
	DDSymXIndex: 	FLAT:stbi_load_from_file
	DD	03fH
	DD	0e8H
_volmd	DD	0ffffffffH
	DDSymXIndex: 	FLAT:stbi_load_from_file_16
	DD	03fH
	DD	0e8H
_volmd	DD	0ffffffffH
	DDSymXIndex: 	FLAT:stbi_load_16_from_memory
	DD	03eH
	DD	0aeH
_volmd	DD	0ffffffffH
	DDSymXIndex: 	FLAT:stbi_load_16_from_callbacks
	DD	03fH
	DD	0afH
_volmd	DD	0ffffffffH
	DDSymXIndex: 	FLAT:stbi_load_from_memory
	DD	03eH
	DD	0aeH
_volmd	DD	0ffffffffH
	DDSymXIndex: 	FLAT:stbi_load_from_callbacks
	DD	03fH
	DD	0afH
_volmd	DD	0ffffffffH
	DDSymXIndex: 	FLAT:stbi_load_gif_from_memory
	DD	03eH
	DD	015aH
_volmd	DD	0ffffffffH
	DDSymXIndex: 	FLAT:stbi__loadf_main
	DD	03fH
	DD	01b2H
_volmd	DD	0ffffffffH
	DDSymXIndex: 	FLAT:stbi_loadf_from_memory
	DD	03eH
	DD	0aeH
_volmd	DD	0ffffffffH
	DDSymXIndex: 	FLAT:stbi_loadf_from_callbacks
	DD	03fH
	DD	0afH
_volmd	DD	0ffffffffH
	DDSymXIndex: 	FLAT:stbi_loadf_from_file
	DD	03fH
	DD	0a7H
_volmd	DD	0ffffffffH
	DDSymXIndex: 	FLAT:stbi_is_hdr_from_memory
	DD	034H
	DD	081H
_volmd	DD	0ffffffffH
	DDSymXIndex: 	FLAT:stbi_is_hdr_from_file
	DD	030H
	DD	0a2H
_volmd	DD	0ffffffffH
	DDSymXIndex: 	FLAT:stbi_is_hdr_from_callbacks
	DD	035H
	DD	082H
_volmd	DD	0ffffffffH
	DDSymXIndex: 	FLAT:stbi__idct_block
	DD	039H
	DD	0ff7H
_volmd	DD	0ffffffffH
	DDSymXIndex: 	FLAT:stbi__parse_entropy_coded_data
	DD	030H
	DD	0d85H
_volmd	DD	0ffffffffH
	DDSymXIndex: 	FLAT:stbi__process_marker
	DD	034H
	DD	0fb5H
_volmd	DD	0ffffffffH
	DDSymXIndex: 	FLAT:load_jpeg_image
	DD	03fH
	DD	012e5H
_volmd	DD	0ffffffffH
	DDSymXIndex: 	FLAT:stbi__zbuild_huffman
	DD	03aH
	DD	04f9H
_volmd	DD	0ffffffffH
	DDSymXIndex: 	FLAT:stbi__compute_huffman_codes
	DD	030H
	DD	081fH
_volmd	DD	0ffffffffH
	DDSymXIndex: 	FLAT:stbi_zlib_decode_malloc_guesssize
	DD	044H
	DD	0126H
_volmd	DD	0ffffffffH
	DDSymXIndex: 	FLAT:stbi_zlib_decode_malloc_guesssize_headerflag
	DD	044H
	DD	0129H
_volmd	DD	0ffffffffH
	DDSymXIndex: 	FLAT:stbi_zlib_decode_buffer
	DD	044H
	DD	0d7H
_volmd	DD	0ffffffffH
	DDSymXIndex: 	FLAT:stbi_zlib_decode_noheader_malloc
	DD	03fH
	DD	0119H
_volmd	DD	0ffffffffH
	DDSymXIndex: 	FLAT:stbi_zlib_decode_noheader_buffer
	DD	044H
	DD	0d7H
_volmd	DD	0ffffffffH
	DDSymXIndex: 	FLAT:stbi__parse_png_file
	DD	039H
	DD	0172cH
_volmd	DD	0ffffffffH
	DDSymXIndex: 	FLAT:stbi__png_load
	DD	03fH
	DD	0acH
_volmd	DD	0ffffffffH
	DDSymXIndex: 	FLAT:stbi__png_info
	DD	03cH
	DD	091H
_volmd	DD	0ffffffffH
	DDSymXIndex: 	FLAT:stbi__png_is16
	DD	02dH
	DD	094H
_volmd	DD	0ffffffffH
	DDSymXIndex: 	FLAT:stbi__bmp_load
	DD	03fH
	DD	01e85H
_volmd	DD	0ffffffffH
	DDSymXIndex: 	FLAT:stbi__tga_load
	DD	03fH
	DD	0135cH
_volmd	DD	0ffffffffH
	DDSymXIndex: 	FLAT:stbi__pic_load_core
	DD	03eH
	DD	0df4H
_volmd	DD	0ffffffffH
	DDSymXIndex: 	FLAT:stbi__pic_load
	DD	03fH
	DD	045aH
_volmd	DD	0ffffffffH
	DDSymXIndex: 	FLAT:stbi__load_gif_main
	DD	046H
	DD	0484H
_volmd	DD	0ffffffffH
	DDSymXIndex: 	FLAT:stbi__gif_load
	DD	045H
	DD	0162H
_volmd	DD	0ffffffffH
	DDSymXIndex: 	FLAT:stbi__hdr_load
	DD	03fH
	DD	011efH
_volmd	DD	0ffffffffH
	DDSymXIndex: 	FLAT:stbi__hdr_info
	DD	03fH
	DD	029aH
_volmd	DD	0ffffffffH
	DDSymXIndex: 	FLAT:stbi__bmp_info
	DD	03fH
	DD	0137H
_volmd	DD	0ffffffffH
	DDSymXIndex: 	FLAT:stbi__psd_info
	DD	039H
	DD	019bH
_volmd	DD	0ffffffffH
	DDSymXIndex: 	FLAT:stbi__pic_info
	DD	03fH
	DD	0741H
_volmd	DD	0ffffffffH
	DDSymXIndex: 	FLAT:stbi__pnm_info
	DD	03fH
	DD	046fH
_volmd	DD	0ffffffffH
	DDSymXIndex: 	FLAT:stbi_info_from_file
	DD	03fH
	DD	0cfH
_volmd	DD	0ffffffffH
	DDSymXIndex: 	FLAT:stbi_is_16_bit_from_file
	DD	030H
	DD	0a8H
_volmd	DD	0ffffffffH
	DDSymXIndex: 	FLAT:stbi_info_from_memory
	DD	03eH
	DD	0a3H
_volmd	DD	0ffffffffH
	DDSymXIndex: 	FLAT:stbi_info_from_callbacks
	DD	03fH
	DD	0a4H
_volmd	DD	0ffffffffH
	DDSymXIndex: 	FLAT:stbi_is_16_bit_from_memory
	DD	034H
	DD	081H
_volmd	DD	0ffffffffH
	DDSymXIndex: 	FLAT:stbi_is_16_bit_from_callbacks
	DD	035H
	DD	082H
_volmd	DD	0ffffffffH
	DDSymXIndex: 	FLAT:TryGetFrame
	DD	02aH
	DD	082H
TryGetFrame$rtcName$0 DB 068H
	DB	061H
	DB	073H
	DB	068H
	DB	00H
	ORG $+11
TryGetFrame$rtcVarDesc DD 028H
	DD	08H
	DQ	FLAT:TryGetFrame$rtcName$0
	ORG $+48
TryGetFrame$rtcFrameData DD 01H
	DD	00H
	DQ	FLAT:TryGetFrame$rtcVarDesc
stbi_is_16_bit_from_callbacks$rtcName$0 DB 073H
	DB	00H
	ORG $+14
stbi_is_16_bit_from_callbacks$rtcVarDesc DD 030H
	DD	0e0H
	DQ	FLAT:stbi_is_16_bit_from_callbacks$rtcName$0
	ORG $+48
stbi_is_16_bit_from_callbacks$rtcFrameData DD 01H
	DD	00H
	DQ	FLAT:stbi_is_16_bit_from_callbacks$rtcVarDesc
stbi_is_16_bit_from_memory$rtcName$0 DB 073H
	DB	00H
	ORG $+14
stbi_is_16_bit_from_memory$rtcVarDesc DD 030H
	DD	0e0H
	DQ	FLAT:stbi_is_16_bit_from_memory$rtcName$0
	ORG $+48
stbi_is_16_bit_from_memory$rtcFrameData DD 01H
	DD	00H
	DQ	FLAT:stbi_is_16_bit_from_memory$rtcVarDesc
stbi_info_from_callbacks$rtcName$0 DB 073H
	DB	00H
	ORG $+14
stbi_info_from_callbacks$rtcVarDesc DD 030H
	DD	0e0H
	DQ	FLAT:stbi_info_from_callbacks$rtcName$0
	ORG $+48
stbi_info_from_callbacks$rtcFrameData DD 01H
	DD	00H
	DQ	FLAT:stbi_info_from_callbacks$rtcVarDesc
stbi_info_from_memory$rtcName$0 DB 073H
	DB	00H
	ORG $+14
stbi_info_from_memory$rtcVarDesc DD 030H
	DD	0e0H
	DQ	FLAT:stbi_info_from_memory$rtcName$0
	ORG $+48
stbi_info_from_memory$rtcFrameData DD 01H
	DD	00H
	DQ	FLAT:stbi_info_from_memory$rtcVarDesc
stbi_is_16_bit_from_file$rtcName$0 DB 073H
	DB	00H
	ORG $+14
stbi_is_16_bit_from_file$rtcVarDesc DD 040H
	DD	0e0H
	DQ	FLAT:stbi_is_16_bit_from_file$rtcName$0
	ORG $+48
stbi_is_16_bit_from_file$rtcFrameData DD 01H
	DD	00H
	DQ	FLAT:stbi_is_16_bit_from_file$rtcVarDesc
stbi_info_from_file$rtcName$0 DB 073H
	DB	00H
	ORG $+14
stbi_info_from_file$rtcVarDesc DD 040H
	DD	0e0H
	DQ	FLAT:stbi_info_from_file$rtcName$0
	ORG $+48
stbi_info_from_file$rtcFrameData DD 01H
	DD	00H
	DQ	FLAT:stbi_info_from_file$rtcVarDesc
stbi__pnm_info$rtcName$0 DB 064H
	DB	075H
	DB	06dH
	DB	06dH
	DB	079H
	DB	00H
	ORG $+2
stbi__pnm_info$rtcName$1 DB 063H
	DB	00H
	ORG $+6
stbi__pnm_info$rtcVarDesc DD 054H
	DD	01H
	DQ	FLAT:stbi__pnm_info$rtcName$1
	DD	034H
	DD	04H
	DQ	FLAT:stbi__pnm_info$rtcName$0
	ORG $+96
stbi__pnm_info$rtcFrameData DD 02H
	DD	00H
	DQ	FLAT:stbi__pnm_info$rtcVarDesc
stbi__pic_info$rtcName$0 DB 064H
	DB	075H
	DB	06dH
	DB	06dH
	DB	079H
	DB	00H
	ORG $+2
stbi__pic_info$rtcName$1 DB 070H
	DB	061H
	DB	063H
	DB	06bH
	DB	065H
	DB	074H
	DB	073H
	DB	00H
stbi__pic_info$rtcVarDesc DD 058H
	DD	01eH
	DQ	FLAT:stbi__pic_info$rtcName$1
	DD	034H
	DD	04H
	DQ	FLAT:stbi__pic_info$rtcName$0
	ORG $+96
stbi__pic_info$rtcFrameData DD 02H
	DD	00H
	DQ	FLAT:stbi__pic_info$rtcVarDesc
stbi__psd_info$rtcName$0 DB 064H
	DB	075H
	DB	06dH
	DB	06dH
	DB	079H
	DB	00H
	ORG $+10
stbi__psd_info$rtcVarDesc DD 034H
	DD	04H
	DQ	FLAT:stbi__psd_info$rtcName$0
	ORG $+48
stbi__psd_info$rtcFrameData DD 01H
	DD	00H
	DQ	FLAT:stbi__psd_info$rtcVarDesc
stbi__bmp_info$rtcName$0 DB 069H
	DB	06eH
	DB	066H
	DB	06fH
	DB	00H
	ORG $+11
stbi__bmp_info$rtcVarDesc DD 038H
	DD	024H
	DQ	FLAT:stbi__bmp_info$rtcName$0
	ORG $+48
stbi__bmp_info$rtcFrameData DD 01H
	DD	00H
	DQ	FLAT:stbi__bmp_info$rtcVarDesc
stbi__hdr_info$rtcName$0 DB 062H
	DB	075H
	DB	066H
	DB	066H
	DB	065H
	DB	072H
	DB	00H
	ORG $+1
stbi__hdr_info$rtcName$1 DB 074H
	DB	06fH
	DB	06bH
	DB	065H
	DB	06eH
	DB	00H
	ORG $+2
stbi__hdr_info$rtcName$2 DB 064H
	DB	075H
	DB	06dH
	DB	06dH
	DB	079H
	DB	00H
	ORG $+10
stbi__hdr_info$rtcVarDesc DD 0464H
	DD	04H
	DQ	FLAT:stbi__hdr_info$rtcName$2
	DD	0448H
	DD	08H
	DQ	FLAT:stbi__hdr_info$rtcName$1
	DD	030H
	DD	0400H
	DQ	FLAT:stbi__hdr_info$rtcName$0
	ORG $+144
stbi__hdr_info$rtcFrameData DD 03H
	DD	00H
	DQ	FLAT:stbi__hdr_info$rtcVarDesc
stbi__hdr_load$rtcName$0 DB 062H
	DB	075H
	DB	066H
	DB	066H
	DB	065H
	DB	072H
	DB	00H
	ORG $+1
stbi__hdr_load$rtcName$1 DB 074H
	DB	06fH
	DB	06bH
	DB	065H
	DB	06eH
	DB	00H
	ORG $+2
stbi__hdr_load$rtcName$2 DB 072H
	DB	067H
	DB	062H
	DB	065H
	DB	00H
	ORG $+3
stbi__hdr_load$rtcName$3 DB 072H
	DB	067H
	DB	062H
	DB	065H
	DB	00H
	ORG $+3
stbi__hdr_load$rtcVarDesc DD 04d4H
	DD	04H
	DQ	FLAT:stbi__hdr_load$rtcName$3
	DD	04b4H
	DD	04H
	DQ	FLAT:stbi__hdr_load$rtcName$2
	DD	0458H
	DD	08H
	DQ	FLAT:stbi__hdr_load$rtcName$1
	DD	040H
	DD	0400H
	DQ	FLAT:stbi__hdr_load$rtcName$0
	ORG $+192
stbi__hdr_load$rtcFrameData DD 04H
	DD	00H
	DQ	FLAT:stbi__hdr_load$rtcVarDesc
stbi__gif_load$rtcName$0 DB 067H
	DB	00H
	ORG $+14
stbi__gif_load$rtcVarDesc DD 050H
	DD	08870H
	DQ	FLAT:stbi__gif_load$rtcName$0
	ORG $+48
stbi__gif_load$rtcFrameData DD 01H
	DD	00H
	DQ	FLAT:stbi__gif_load$rtcVarDesc
stbi__load_gif_main$rtcName$0 DB 067H
	DB	00H
	ORG $+14
stbi__load_gif_main$rtcVarDesc DD 060H
	DD	08870H
	DQ	FLAT:stbi__load_gif_main$rtcName$0
	ORG $+48
stbi__load_gif_main$rtcFrameData DD 01H
	DD	00H
	DQ	FLAT:stbi__load_gif_main$rtcVarDesc
stbi__pic_load$rtcName$0 DB 069H
	DB	06eH
	DB	074H
	DB	065H
	DB	072H
	DB	06eH
	DB	061H
	DB	06cH
	DB	05fH
	DB	063H
	DB	06fH
	DB	06dH
	DB	070H
	DB	00H
	ORG $+2
stbi__pic_load$rtcVarDesc DD 054H
	DD	04H
	DQ	FLAT:stbi__pic_load$rtcName$0
	ORG $+48
stbi__pic_load$rtcFrameData DD 01H
	DD	00H
	DQ	FLAT:stbi__pic_load$rtcVarDesc
stbi__pic_load_core$rtcName$0 DB 070H
	DB	061H
	DB	063H
	DB	06bH
	DB	065H
	DB	074H
	DB	073H
	DB	00H
stbi__pic_load_core$rtcName$1 DB 076H
	DB	061H
	DB	06cH
	DB	075H
	DB	065H
	DB	00H
	ORG $+2
stbi__pic_load_core$rtcName$2 DB 076H
	DB	061H
	DB	06cH
	DB	075H
	DB	065H
	DB	00H
	ORG $+10
stbi__pic_load_core$rtcVarDesc DD 0c4H
	DD	04H
	DQ	FLAT:stbi__pic_load_core$rtcName$2
	DD	0a4H
	DD	04H
	DQ	FLAT:stbi__pic_load_core$rtcName$1
	DD	038H
	DD	01eH
	DQ	FLAT:stbi__pic_load_core$rtcName$0
	ORG $+144
stbi__pic_load_core$rtcFrameData DD 03H
	DD	00H
	DQ	FLAT:stbi__pic_load_core$rtcVarDesc
stbi__tga_load$rtcName$0 DB 074H
	DB	067H
	DB	061H
	DB	05fH
	DB	072H
	DB	067H
	DB	062H
	DB	031H
	DB	036H
	DB	00H
	ORG $+6
stbi__tga_load$rtcName$1 DB 072H
	DB	061H
	DB	077H
	DB	05fH
	DB	064H
	DB	061H
	DB	074H
	DB	061H
	DB	00H
	ORG $+7
stbi__tga_load$rtcVarDesc DD 0a4H
	DD	04H
	DQ	FLAT:stbi__tga_load$rtcName$1
	DD	074H
	DD	04H
	DQ	FLAT:stbi__tga_load$rtcName$0
	ORG $+96
stbi__tga_load$rtcFrameData DD 02H
	DD	00H
	DQ	FLAT:stbi__tga_load$rtcVarDesc
stbi__bmp_load$rtcName$0 DB 070H
	DB	061H
	DB	06cH
	DB	00H
stbi__bmp_load$rtcName$1 DB 069H
	DB	06eH
	DB	066H
	DB	06fH
	DB	00H
	ORG $+7
stbi__bmp_load$rtcVarDesc DD 0488H
	DD	024H
	DQ	FLAT:stbi__bmp_load$rtcName$1
	DD	060H
	DD	0400H
	DQ	FLAT:stbi__bmp_load$rtcName$0
	ORG $+96
stbi__bmp_load$rtcFrameData DD 02H
	DD	00H
	DQ	FLAT:stbi__bmp_load$rtcVarDesc
stbi__png_is16$rtcName$0 DB 070H
	DB	00H
	ORG $+14
stbi__png_is16$rtcVarDesc DD 028H
	DD	028H
	DQ	FLAT:stbi__png_is16$rtcName$0
	ORG $+48
stbi__png_is16$rtcFrameData DD 01H
	DD	00H
	DQ	FLAT:stbi__png_is16$rtcVarDesc
stbi__png_info$rtcName$0 DB 070H
	DB	00H
	ORG $+14
stbi__png_info$rtcVarDesc DD 028H
	DD	028H
	DQ	FLAT:stbi__png_info$rtcName$0
	ORG $+48
stbi__png_info$rtcFrameData DD 01H
	DD	00H
	DQ	FLAT:stbi__png_info$rtcVarDesc
stbi__png_load$rtcName$0 DB 070H
	DB	00H
	ORG $+14
stbi__png_load$rtcVarDesc DD 038H
	DD	028H
	DQ	FLAT:stbi__png_load$rtcName$0
	ORG $+48
stbi__png_load$rtcFrameData DD 01H
	DD	00H
	DQ	FLAT:stbi__png_load$rtcVarDesc
stbi__parse_png_file$rtcName$0 DB 070H
	DB	061H
	DB	06cH
	DB	065H
	DB	074H
	DB	074H
	DB	065H
	DB	00H
stbi__parse_png_file$rtcName$1 DB 074H
	DB	063H
	DB	00H
	ORG $+1
stbi__parse_png_file$rtcName$2 DB 074H
	DB	063H
	DB	031H
	DB	036H
	DB	00H
	ORG $+3
stbi__parse_png_file$rtcName$3 DB 063H
	DB	00H
	ORG $+2
stbi__parse_png_file$rtcName$4 DB 072H
	DB	061H
	DB	077H
	DB	05fH
	DB	06cH
	DB	065H
	DB	06eH
	DB	00H
stbi__parse_png_file$rtcVarDesc DD 04f4H
	DD	04H
	DQ	FLAT:stbi__parse_png_file$rtcName$4
	DD	04c8H
	DD	08H
	DQ	FLAT:stbi__parse_png_file$rtcName$3
	DD	0484H
	DD	06H
	DQ	FLAT:stbi__parse_png_file$rtcName$2
	DD	0464H
	DD	03H
	DQ	FLAT:stbi__parse_png_file$rtcName$1
	DD	050H
	DD	0400H
	DQ	FLAT:stbi__parse_png_file$rtcName$0
	ORG $+240
stbi__parse_png_file$rtcFrameData DD 05H
	DD	00H
	DQ	FLAT:stbi__parse_png_file$rtcVarDesc
stbi__create_png_image$rtcName$0 DB 078H
	DB	06fH
	DB	072H
	DB	069H
	DB	067H
	DB	00H
	ORG $+2
stbi__create_png_image$rtcName$1 DB 079H
	DB	06fH
	DB	072H
	DB	069H
	DB	067H
	DB	00H
	ORG $+2
stbi__create_png_image$rtcName$2 DB 078H
	DB	073H
	DB	070H
	DB	063H
	DB	00H
	ORG $+3
stbi__create_png_image$rtcName$3 DB 079H
	DB	073H
	DB	070H
	DB	063H
	DB	00H
	ORG $+3
stbi__create_png_image$rtcVarDesc DD 0128H
	DD	01cH
	DQ	FLAT:stbi__create_png_image$rtcName$3
	DD	0e8H
	DD	01cH
	DQ	FLAT:stbi__create_png_image$rtcName$2
	DD	0a8H
	DD	01cH
	DQ	FLAT:stbi__create_png_image$rtcName$1
	DD	068H
	DD	01cH
	DQ	FLAT:stbi__create_png_image$rtcName$0
	ORG $+192
stbi__create_png_image$rtcFrameData DD 04H
	DD	00H
	DQ	FLAT:stbi__create_png_image$rtcVarDesc
stbi__get_chunk_header$rtcName$0 DB 063H
	DB	00H
	ORG $+14
stbi__get_chunk_header$rtcVarDesc DD 028H
	DD	08H
	DQ	FLAT:stbi__get_chunk_header$rtcName$0
	ORG $+48
stbi__get_chunk_header$rtcFrameData DD 01H
	DD	00H
	DQ	FLAT:stbi__get_chunk_header$rtcVarDesc
stbi_zlib_decode_noheader_buffer$rtcName$0 DB 061H
	DB	00H
	ORG $+14
stbi_zlib_decode_noheader_buffer$rtcVarDesc DD 040H
	DD	01000H
	DQ	FLAT:stbi_zlib_decode_noheader_buffer$rtcName$0
	ORG $+48
stbi_zlib_decode_noheader_buffer$rtcFrameData DD 01H
	DD	00H
	DQ	FLAT:stbi_zlib_decode_noheader_buffer$rtcVarDesc
stbi_zlib_decode_noheader_malloc$rtcName$0 DB 061H
	DB	00H
	ORG $+14
stbi_zlib_decode_noheader_malloc$rtcVarDesc DD 040H
	DD	01000H
	DQ	FLAT:stbi_zlib_decode_noheader_malloc$rtcName$0
	ORG $+48
stbi_zlib_decode_noheader_malloc$rtcFrameData DD 01H
	DD	00H
	DQ	FLAT:stbi_zlib_decode_noheader_malloc$rtcVarDesc
stbi_zlib_decode_buffer$rtcName$0 DB 061H
	DB	00H
	ORG $+14
stbi_zlib_decode_buffer$rtcVarDesc DD 040H
	DD	01000H
	DQ	FLAT:stbi_zlib_decode_buffer$rtcName$0
	ORG $+48
stbi_zlib_decode_buffer$rtcFrameData DD 01H
	DD	00H
	DQ	FLAT:stbi_zlib_decode_buffer$rtcVarDesc
stbi_zlib_decode_malloc_guesssize_headerflag$rtcName$0 DB 061H
	DB	00H
	ORG $+14
stbi_zlib_decode_malloc_guesssize_headerflag$rtcVarDesc DD 040H
	DD	01000H
	DQ	FLAT:stbi_zlib_decode_malloc_guesssize_headerflag$rtcName$0
	ORG $+48
stbi_zlib_decode_malloc_guesssize_headerflag$rtcFrameData DD 01H
	DD	00H
	DQ	FLAT:stbi_zlib_decode_malloc_guesssize_headerflag$rtcVarDesc
stbi_zlib_decode_malloc_guesssize$rtcName$0 DB 061H
	DB	00H
	ORG $+14
stbi_zlib_decode_malloc_guesssize$rtcVarDesc DD 040H
	DD	01000H
	DQ	FLAT:stbi_zlib_decode_malloc_guesssize$rtcName$0
	ORG $+48
stbi_zlib_decode_malloc_guesssize$rtcFrameData DD 01H
	DD	00H
	DQ	FLAT:stbi_zlib_decode_malloc_guesssize$rtcVarDesc
stbi__parse_uncompressed_block$rtcName$0 DB 068H
	DB	065H
	DB	061H
	DB	064H
	DB	065H
	DB	072H
	DB	00H
	ORG $+9
stbi__parse_uncompressed_block$rtcVarDesc DD 024H
	DD	04H
	DQ	FLAT:stbi__parse_uncompressed_block$rtcName$0
	ORG $+48
stbi__parse_uncompressed_block$rtcFrameData DD 01H
	DD	00H
	DQ	FLAT:stbi__parse_uncompressed_block$rtcVarDesc
stbi__compute_huffman_codes$rtcName$0 DB 07aH
	DB	05fH
	DB	063H
	DB	06fH
	DB	064H
	DB	065H
	DB	06cH
	DB	065H
	DB	06eH
	DB	067H
	DB	074H
	DB	068H
	DB	00H
	ORG $+3
stbi__compute_huffman_codes$rtcName$1 DB 06cH
	DB	065H
	DB	06eH
	DB	063H
	DB	06fH
	DB	064H
	DB	065H
	DB	073H
	DB	00H
	ORG $+7
stbi__compute_huffman_codes$rtcName$2 DB 063H
	DB	06fH
	DB	064H
	DB	065H
	DB	06cH
	DB	065H
	DB	06eH
	DB	067H
	DB	074H
	DB	068H
	DB	05fH
	DB	073H
	DB	069H
	DB	07aH
	DB	065H
	DB	073H
	DB	00H
	ORG $+15
stbi__compute_huffman_codes$rtcVarDesc DD 0a28H
	DD	013H
	DQ	FLAT:stbi__compute_huffman_codes$rtcName$2
	DD	0840H
	DD	01c7H
	DQ	FLAT:stbi__compute_huffman_codes$rtcName$1
	DD	030H
	DD	07e4H
	DQ	FLAT:stbi__compute_huffman_codes$rtcName$0
	ORG $+144
stbi__compute_huffman_codes$rtcFrameData DD 03H
	DD	00H
	DQ	FLAT:stbi__compute_huffman_codes$rtcVarDesc
stbi__zbuild_huffman$rtcName$0 DB 06eH
	DB	065H
	DB	078H
	DB	074H
	DB	05fH
	DB	063H
	DB	06fH
	DB	064H
	DB	065H
	DB	00H
	ORG $+2
stbi__zbuild_huffman$rtcName$1 DB 073H
	DB	069H
	DB	07aH
	DB	065H
	DB	073H
	DB	00H
	ORG $+14
stbi__zbuild_huffman$rtcVarDesc DD 0a0H
	DD	044H
	DQ	FLAT:stbi__zbuild_huffman$rtcName$1
	DD	040H
	DD	040H
	DQ	FLAT:stbi__zbuild_huffman$rtcName$0
	ORG $+96
stbi__zbuild_huffman$rtcFrameData DD 02H
	DD	00H
	DQ	FLAT:stbi__zbuild_huffman$rtcVarDesc
load_jpeg_image$rtcName$0 DB 063H
	DB	06fH
	DB	075H
	DB	074H
	DB	070H
	DB	075H
	DB	074H
	DB	00H
load_jpeg_image$rtcName$1 DB 072H
	DB	065H
	DB	073H
	DB	05fH
	DB	063H
	DB	06fH
	DB	06dH
	DB	070H
	DB	00H
	ORG $+15
load_jpeg_image$rtcVarDesc DD 0a0H
	DD	0c0H
	DQ	FLAT:load_jpeg_image$rtcName$1
	DD	058H
	DD	020H
	DQ	FLAT:load_jpeg_image$rtcName$0
	ORG $+96
load_jpeg_image$rtcFrameData DD 02H
	DD	00H
	DQ	FLAT:load_jpeg_image$rtcVarDesc
stbi__process_marker$rtcName$0 DB 073H
	DB	069H
	DB	07aH
	DB	065H
	DB	073H
	DB	00H
	ORG $+10
stbi__process_marker$rtcVarDesc DD 050H
	DD	040H
	DQ	FLAT:stbi__process_marker$rtcName$0
	ORG $+48
stbi__process_marker$rtcFrameData DD 01H
	DD	00H
	DQ	FLAT:stbi__process_marker$rtcVarDesc
stbi__parse_entropy_coded_data$rtcName$0 DB 064H
	DB	061H
	DB	074H
	DB	061H
	DB	00H
	ORG $+3
stbi__parse_entropy_coded_data$rtcName$1 DB 064H
	DB	061H
	DB	074H
	DB	061H
	DB	00H
	ORG $+3
stbi__parse_entropy_coded_data$rtcVarDesc DD 0120H
	DD	080H
	DQ	FLAT:stbi__parse_entropy_coded_data$rtcName$1
	DD	060H
	DD	080H
	DQ	FLAT:stbi__parse_entropy_coded_data$rtcName$0
	ORG $+96
stbi__parse_entropy_coded_data$rtcFrameData DD 02H
	DD	00H
	DQ	FLAT:stbi__parse_entropy_coded_data$rtcVarDesc
stbi__idct_block$rtcName$0 DB 076H
	DB	061H
	DB	06cH
	DB	00H
	ORG $+12
stbi__idct_block$rtcVarDesc DD 040H
	DD	0100H
	DQ	FLAT:stbi__idct_block$rtcName$0
	ORG $+48
stbi__idct_block$rtcFrameData DD 01H
	DD	00H
	DQ	FLAT:stbi__idct_block$rtcVarDesc
stbi_is_hdr_from_callbacks$rtcName$0 DB 073H
	DB	00H
	ORG $+14
stbi_is_hdr_from_callbacks$rtcVarDesc DD 030H
	DD	0e0H
	DQ	FLAT:stbi_is_hdr_from_callbacks$rtcName$0
	ORG $+48
stbi_is_hdr_from_callbacks$rtcFrameData DD 01H
	DD	00H
	DQ	FLAT:stbi_is_hdr_from_callbacks$rtcVarDesc
stbi_is_hdr_from_file$rtcName$0 DB 073H
	DB	00H
	ORG $+14
stbi_is_hdr_from_file$rtcVarDesc DD 040H
	DD	0e0H
	DQ	FLAT:stbi_is_hdr_from_file$rtcName$0
	ORG $+48
stbi_is_hdr_from_file$rtcFrameData DD 01H
	DD	00H
	DQ	FLAT:stbi_is_hdr_from_file$rtcVarDesc
stbi_is_hdr_from_memory$rtcName$0 DB 073H
	DB	00H
	ORG $+14
stbi_is_hdr_from_memory$rtcVarDesc DD 030H
	DD	0e0H
	DQ	FLAT:stbi_is_hdr_from_memory$rtcName$0
	ORG $+48
stbi_is_hdr_from_memory$rtcFrameData DD 01H
	DD	00H
	DQ	FLAT:stbi_is_hdr_from_memory$rtcVarDesc
stbi_loadf_from_file$rtcName$0 DB 073H
	DB	00H
	ORG $+14
stbi_loadf_from_file$rtcVarDesc DD 040H
	DD	0e0H
	DQ	FLAT:stbi_loadf_from_file$rtcName$0
	ORG $+48
stbi_loadf_from_file$rtcFrameData DD 01H
	DD	00H
	DQ	FLAT:stbi_loadf_from_file$rtcVarDesc
stbi_loadf_from_callbacks$rtcName$0 DB 073H
	DB	00H
	ORG $+14
stbi_loadf_from_callbacks$rtcVarDesc DD 040H
	DD	0e0H
	DQ	FLAT:stbi_loadf_from_callbacks$rtcName$0
	ORG $+48
stbi_loadf_from_callbacks$rtcFrameData DD 01H
	DD	00H
	DQ	FLAT:stbi_loadf_from_callbacks$rtcVarDesc
stbi_loadf_from_memory$rtcName$0 DB 073H
	DB	00H
	ORG $+14
stbi_loadf_from_memory$rtcVarDesc DD 040H
	DD	0e0H
	DQ	FLAT:stbi_loadf_from_memory$rtcName$0
	ORG $+48
stbi_loadf_from_memory$rtcFrameData DD 01H
	DD	00H
	DQ	FLAT:stbi_loadf_from_memory$rtcVarDesc
stbi__loadf_main$rtcName$0 DB 072H
	DB	069H
	DB	00H
	ORG $+13
stbi__loadf_main$rtcVarDesc DD 048H
	DD	0cH
	DQ	FLAT:stbi__loadf_main$rtcName$0
	ORG $+48
stbi__loadf_main$rtcFrameData DD 01H
	DD	00H
	DQ	FLAT:stbi__loadf_main$rtcVarDesc
stbi_load_gif_from_memory$rtcName$0 DB 073H
	DB	00H
	ORG $+14
stbi_load_gif_from_memory$rtcVarDesc DD 060H
	DD	0e0H
	DQ	FLAT:stbi_load_gif_from_memory$rtcName$0
	ORG $+48
stbi_load_gif_from_memory$rtcFrameData DD 01H
	DD	00H
	DQ	FLAT:stbi_load_gif_from_memory$rtcVarDesc
stbi_load_from_callbacks$rtcName$0 DB 073H
	DB	00H
	ORG $+14
stbi_load_from_callbacks$rtcVarDesc DD 040H
	DD	0e0H
	DQ	FLAT:stbi_load_from_callbacks$rtcName$0
	ORG $+48
stbi_load_from_callbacks$rtcFrameData DD 01H
	DD	00H
	DQ	FLAT:stbi_load_from_callbacks$rtcVarDesc
stbi_load_from_memory$rtcName$0 DB 073H
	DB	00H
	ORG $+14
stbi_load_from_memory$rtcVarDesc DD 040H
	DD	0e0H
	DQ	FLAT:stbi_load_from_memory$rtcName$0
	ORG $+48
stbi_load_from_memory$rtcFrameData DD 01H
	DD	00H
	DQ	FLAT:stbi_load_from_memory$rtcVarDesc
stbi_load_16_from_callbacks$rtcName$0 DB 073H
	DB	00H
	ORG $+14
stbi_load_16_from_callbacks$rtcVarDesc DD 040H
	DD	0e0H
	DQ	FLAT:stbi_load_16_from_callbacks$rtcName$0
	ORG $+48
stbi_load_16_from_callbacks$rtcFrameData DD 01H
	DD	00H
	DQ	FLAT:stbi_load_16_from_callbacks$rtcVarDesc
stbi_load_16_from_memory$rtcName$0 DB 073H
	DB	00H
	ORG $+14
stbi_load_16_from_memory$rtcVarDesc DD 040H
	DD	0e0H
	DQ	FLAT:stbi_load_16_from_memory$rtcName$0
	ORG $+48
stbi_load_16_from_memory$rtcFrameData DD 01H
	DD	00H
	DQ	FLAT:stbi_load_16_from_memory$rtcVarDesc
stbi_load_from_file_16$rtcName$0 DB 073H
	DB	00H
	ORG $+14
stbi_load_from_file_16$rtcVarDesc DD 050H
	DD	0e0H
	DQ	FLAT:stbi_load_from_file_16$rtcName$0
	ORG $+48
stbi_load_from_file_16$rtcFrameData DD 01H
	DD	00H
	DQ	FLAT:stbi_load_from_file_16$rtcVarDesc
stbi_load_from_file$rtcName$0 DB 073H
	DB	00H
	ORG $+14
stbi_load_from_file$rtcVarDesc DD 050H
	DD	0e0H
	DQ	FLAT:stbi_load_from_file$rtcName$0
	ORG $+48
stbi_load_from_file$rtcFrameData DD 01H
	DD	00H
	DQ	FLAT:stbi_load_from_file$rtcVarDesc
stbi__fopen$rtcName$0 DB 066H
	DB	00H
	ORG $+14
stbi__fopen$rtcVarDesc DD 028H
	DD	08H
	DQ	FLAT:stbi__fopen$rtcName$0
	ORG $+48
stbi__fopen$rtcFrameData DD 01H
	DD	00H
	DQ	FLAT:stbi__fopen$rtcVarDesc
stbi__load_and_postprocess_16bit$rtcName$0 DB 072H
	DB	069H
	DB	00H
	ORG $+13
stbi__load_and_postprocess_16bit$rtcVarDesc DD 048H
	DD	0cH
	DQ	FLAT:stbi__load_and_postprocess_16bit$rtcName$0
	ORG $+48
stbi__load_and_postprocess_16bit$rtcFrameData DD 01H
	DD	00H
	DQ	FLAT:stbi__load_and_postprocess_16bit$rtcVarDesc
stbi__load_and_postprocess_8bit$rtcName$0 DB 072H
	DB	069H
	DB	00H
	ORG $+13
stbi__load_and_postprocess_8bit$rtcVarDesc DD 048H
	DD	0cH
	DQ	FLAT:stbi__load_and_postprocess_8bit$rtcName$0
	ORG $+48
stbi__load_and_postprocess_8bit$rtcFrameData DD 01H
	DD	00H
	DQ	FLAT:stbi__load_and_postprocess_8bit$rtcVarDesc
stbi__vertical_flip$rtcName$0 DB 074H
	DB	065H
	DB	06dH
	DB	070H
	DB	00H
	ORG $+11
stbi__vertical_flip$rtcVarDesc DD 040H
	DD	0800H
	DQ	FLAT:stbi__vertical_flip$rtcName$0
	ORG $+48
stbi__vertical_flip$rtcFrameData DD 01H
	DD	00H
	DQ	FLAT:stbi__vertical_flip$rtcVarDesc
stbi__cpuid3$rtcName$0 DB 069H
	DB	06eH
	DB	066H
	DB	06fH
	DB	00H
	ORG $+11
stbi__cpuid3$rtcVarDesc DD 028H
	DD	010H
	DQ	FLAT:stbi__cpuid3$rtcName$0
	ORG $+48
stbi__cpuid3$rtcFrameData DD 01H
	DD	00H
	DQ	FLAT:stbi__cpuid3$rtcVarDesc
TryGetFrame2$rtcName$0 DB 068H
	DB	061H
	DB	073H
	DB	068H
	DB	00H
	ORG $+11
TryGetFrame2$rtcVarDesc DD 028H
	DD	08H
	DQ	FLAT:TryGetFrame2$rtcName$0
	ORG $+48
TryGetFrame2$rtcFrameData DD 01H
	DD	00H
	DQ	FLAT:TryGetFrame2$rtcVarDesc
; Function compile flags: /Odtp /RTCsu
; File C:\Users\drago\source\repos\cGame - less comments\cGame\includes\stb-master\stb_image.h
_TEXT	SEGMENT
stbi_failure_reason PROC

; 971  : {

$LN3:
  00000	40 57		 push	 rdi
  00002	48 83 ec 20	 sub	 rsp, 32			; 00000020H
  00006	48 8d 0d 00 00
	00 00		 lea	 rcx, OFFSET FLAT:__D1DC2946_EntityManager@h
  0000d	e8 00 00 00 00	 call	 __CheckForDebuggerJustMyCode

; 972  :    return stbi__g_failure_reason;

  00012	b8 00 00 00 00	 mov	 eax, OFFSET FLAT:stbi__g_failure_reason
  00017	8b c0		 mov	 eax, eax
  00019	65 48 8b 0c 25
	58 00 00 00	 mov	 rcx, QWORD PTR gs:88
  00022	48 8b 09	 mov	 rcx, QWORD PTR [rcx]
  00025	48 8b 04 08	 mov	 rax, QWORD PTR [rax+rcx]

; 973  : }

  00029	48 83 c4 20	 add	 rsp, 32			; 00000020H
  0002d	5f		 pop	 rdi
  0002e	c3		 ret	 0
stbi_failure_reason ENDP
_TEXT	ENDS
; Function compile flags: /Odtp /RTCsu
; File C:\Users\drago\source\repos\cGame - less comments\cGame\Dictionary.c
_TEXT	SEGMENT
hash$ = 40
frame$ = 56
tv68 = 72
__$ArrayPad$ = 80
path$ = 112
wasNull$ = 120
TryGetFrame2 PROC

; 153  : byte* TryGetFrame2(char *path, bool *wasNull) {//only use if you are unsure if the value is in the map. kinda slow because of the linear probing. will add to the map if the key isn't already in it.

$LN6:
  00000	48 89 54 24 10	 mov	 QWORD PTR [rsp+16], rdx
  00005	48 89 4c 24 08	 mov	 QWORD PTR [rsp+8], rcx
  0000a	57		 push	 rdi
  0000b	48 83 ec 60	 sub	 rsp, 96			; 00000060H
  0000f	48 8d 7c 24 20	 lea	 rdi, QWORD PTR [rsp+32]
  00014	b9 10 00 00 00	 mov	 ecx, 16
  00019	b8 cc cc cc cc	 mov	 eax, -858993460		; ccccccccH
  0001e	f3 ab		 rep stosd
  00020	48 8b 4c 24 70	 mov	 rcx, QWORD PTR [rsp+112]
  00025	48 8b 05 00 00
	00 00		 mov	 rax, QWORD PTR __security_cookie
  0002c	48 33 c4	 xor	 rax, rsp
  0002f	48 89 44 24 50	 mov	 QWORD PTR __$ArrayPad$[rsp], rax
  00034	48 8d 0d 00 00
	00 00		 lea	 rcx, OFFSET FLAT:__460EF0CE_EntityManager@c
  0003b	e8 00 00 00 00	 call	 __CheckForDebuggerJustMyCode

; 154  : 	ULONGLONG hash;
; 155  : 	byte* frame = GetFrame(path, &hash);

  00040	48 8d 54 24 28	 lea	 rdx, QWORD PTR hash$[rsp]
  00045	48 8b 4c 24 70	 mov	 rcx, QWORD PTR path$[rsp]
  0004a	e8 00 00 00 00	 call	 GetFrame
  0004f	48 89 44 24 38	 mov	 QWORD PTR frame$[rsp], rax

; 156  : 	if (*wasNull = !frame) {

  00054	48 83 7c 24 38
	00		 cmp	 QWORD PTR frame$[rsp], 0
  0005a	75 0a		 jne	 SHORT $LN4@TryGetFram
  0005c	c7 44 24 48 01
	00 00 00	 mov	 DWORD PTR tv68[rsp], 1
  00064	eb 08		 jmp	 SHORT $LN5@TryGetFram
$LN4@TryGetFram:
  00066	c7 44 24 48 00
	00 00 00	 mov	 DWORD PTR tv68[rsp], 0
$LN5@TryGetFram:
  0006e	48 8b 44 24 78	 mov	 rax, QWORD PTR wasNull$[rsp]
  00073	0f b6 4c 24 48	 movzx	 ecx, BYTE PTR tv68[rsp]
  00078	88 08		 mov	 BYTE PTR [rax], cl
  0007a	0f b6 44 24 48	 movzx	 eax, BYTE PTR tv68[rsp]
  0007f	85 c0		 test	 eax, eax
  00081	74 11		 je	 SHORT $LN2@TryGetFram

; 157  : 		//printf("returned new frame for \"%s\"\n", path);
; 158  : 		return AddFrameData(hash, path);

  00083	48 8b 54 24 70	 mov	 rdx, QWORD PTR path$[rsp]
  00088	48 8b 4c 24 28	 mov	 rcx, QWORD PTR hash$[rsp]
  0008d	e8 00 00 00 00	 call	 AddFrameData
  00092	eb 05		 jmp	 SHORT $LN1@TryGetFram
$LN2@TryGetFram:

; 159  : 	}
; 160  : 	//printf("returned %zu for path \"%s\"\n", frame, path);
; 161  : 	return frame;

  00094	48 8b 44 24 38	 mov	 rax, QWORD PTR frame$[rsp]
$LN1@TryGetFram:

; 162  : }

  00099	48 8b f8	 mov	 rdi, rax
  0009c	48 8b cc	 mov	 rcx, rsp
  0009f	48 8d 15 00 00
	00 00		 lea	 rdx, OFFSET FLAT:TryGetFrame2$rtcFrameData
  000a6	e8 00 00 00 00	 call	 _RTC_CheckStackVars
  000ab	48 8b c7	 mov	 rax, rdi
  000ae	48 8b 4c 24 50	 mov	 rcx, QWORD PTR __$ArrayPad$[rsp]
  000b3	48 33 cc	 xor	 rcx, rsp
  000b6	e8 00 00 00 00	 call	 __security_check_cookie
  000bb	48 83 c4 60	 add	 rsp, 96			; 00000060H
  000bf	5f		 pop	 rdi
  000c0	c3		 ret	 0
TryGetFrame2 ENDP
_TEXT	ENDS
; Function compile flags: /Odtp /RTCsu
; File C:\Users\drago\source\repos\cGame - less comments\cGame\includes\stb-master\stb_image.h
_TEXT	SEGMENT
info$ = 40
__$ArrayPad$ = 80
stbi__cpuid3 PROC

; 731  : {

  00000	40 53		 push	 rbx
  00002	57		 push	 rdi
  00003	48 83 ec 68	 sub	 rsp, 104		; 00000068H
  00007	48 8d 7c 24 20	 lea	 rdi, QWORD PTR [rsp+32]
  0000c	b9 12 00 00 00	 mov	 ecx, 18
  00011	b8 cc cc cc cc	 mov	 eax, -858993460		; ccccccccH
  00016	f3 ab		 rep stosd
  00018	48 8b 05 00 00
	00 00		 mov	 rax, QWORD PTR __security_cookie
  0001f	48 33 c4	 xor	 rax, rsp
  00022	48 89 44 24 50	 mov	 QWORD PTR __$ArrayPad$[rsp], rax
  00027	48 8d 0d 00 00
	00 00		 lea	 rcx, OFFSET FLAT:__D1DC2946_EntityManager@h
  0002e	e8 00 00 00 00	 call	 __CheckForDebuggerJustMyCode

; 732  :    int info[4];
; 733  :    __cpuid(info,1);

  00033	b8 01 00 00 00	 mov	 eax, 1
  00038	33 c9		 xor	 ecx, ecx
  0003a	0f a2		 cpuid
  0003c	4c 8d 44 24 28	 lea	 r8, QWORD PTR info$[rsp]
  00041	41 89 00	 mov	 DWORD PTR [r8], eax
  00044	41 89 58 04	 mov	 DWORD PTR [r8+4], ebx
  00048	41 89 48 08	 mov	 DWORD PTR [r8+8], ecx
  0004c	41 89 50 0c	 mov	 DWORD PTR [r8+12], edx

; 734  :    return info[3];

  00050	b8 04 00 00 00	 mov	 eax, 4
  00055	48 6b c0 03	 imul	 rax, rax, 3
  00059	8b 44 04 28	 mov	 eax, DWORD PTR info$[rsp+rax]

; 735  : }

  0005d	8b f8		 mov	 edi, eax
  0005f	48 8b cc	 mov	 rcx, rsp
  00062	48 8d 15 00 00
	00 00		 lea	 rdx, OFFSET FLAT:stbi__cpuid3$rtcFrameData
  00069	e8 00 00 00 00	 call	 _RTC_CheckStackVars
  0006e	8b c7		 mov	 eax, edi
  00070	48 8b 4c 24 50	 mov	 rcx, QWORD PTR __$ArrayPad$[rsp]
  00075	48 33 cc	 xor	 rcx, rsp
  00078	e8 00 00 00 00	 call	 __security_check_cookie
  0007d	48 83 c4 68	 add	 rsp, 104		; 00000068H
  00081	5f		 pop	 rdi
  00082	5b		 pop	 rbx
  00083	c3		 ret	 0
stbi__cpuid3 ENDP
_TEXT	ENDS
; Function compile flags: /Odtp /RTCsu
; File C:\Users\drago\source\repos\cGame - less comments\cGame\includes\stb-master\stb_image.h
_TEXT	SEGMENT
info3$ = 32
tv68 = 36
stbi__sse2_available PROC

; 753  : {

  00000	40 57		 push	 rdi
  00002	48 83 ec 30	 sub	 rsp, 48			; 00000030H
  00006	48 8d 0d 00 00
	00 00		 lea	 rcx, OFFSET FLAT:__D1DC2946_EntityManager@h
  0000d	e8 00 00 00 00	 call	 __CheckForDebuggerJustMyCode

; 754  :    int info3 = stbi__cpuid3();

  00012	e8 00 00 00 00	 call	 stbi__cpuid3
  00017	89 44 24 20	 mov	 DWORD PTR info3$[rsp], eax

; 755  :    return ((info3 >> 26) & 1) != 0;

  0001b	8b 44 24 20	 mov	 eax, DWORD PTR info3$[rsp]
  0001f	c1 f8 1a	 sar	 eax, 26
  00022	83 e0 01	 and	 eax, 1
  00025	85 c0		 test	 eax, eax
  00027	74 0a		 je	 SHORT $LN3@stbi__sse2
  00029	c7 44 24 24 01
	00 00 00	 mov	 DWORD PTR tv68[rsp], 1
  00031	eb 08		 jmp	 SHORT $LN4@stbi__sse2
$LN3@stbi__sse2:
  00033	c7 44 24 24 00
	00 00 00	 mov	 DWORD PTR tv68[rsp], 0
$LN4@stbi__sse2:
  0003b	8b 44 24 24	 mov	 eax, DWORD PTR tv68[rsp]

; 756  : }

  0003f	48 83 c4 30	 add	 rsp, 48			; 00000030H
  00043	5f		 pop	 rdi
  00044	c3		 ret	 0
stbi__sse2_available ENDP
_TEXT	ENDS
; Function compile flags: /Odtp /RTCsu
; File C:\Users\drago\source\repos\cGame - less comments\cGame\includes\stb-master\stb_image.h
_TEXT	SEGMENT
tv72 = 32
s$ = 64
buffer$ = 72
len$ = 80
stbi__start_mem PROC

; 825  : {

  00000	44 89 44 24 18	 mov	 DWORD PTR [rsp+24], r8d
  00005	48 89 54 24 10	 mov	 QWORD PTR [rsp+16], rdx
  0000a	48 89 4c 24 08	 mov	 QWORD PTR [rsp+8], rcx
  0000f	57		 push	 rdi
  00010	48 83 ec 30	 sub	 rsp, 48			; 00000030H
  00014	48 8d 0d 00 00
	00 00		 lea	 rcx, OFFSET FLAT:__D1DC2946_EntityManager@h
  0001b	e8 00 00 00 00	 call	 __CheckForDebuggerJustMyCode

; 826  :    s->io.read = NULL;

  00020	48 8b 44 24 40	 mov	 rax, QWORD PTR s$[rsp]
  00025	48 c7 40 10 00
	00 00 00	 mov	 QWORD PTR [rax+16], 0

; 827  :    s->read_from_callbacks = 0;

  0002d	48 8b 44 24 40	 mov	 rax, QWORD PTR s$[rsp]
  00032	c7 40 30 00 00
	00 00		 mov	 DWORD PTR [rax+48], 0

; 828  :    s->callback_already_read = 0;

  00039	48 8b 44 24 40	 mov	 rax, QWORD PTR s$[rsp]
  0003e	c7 80 b8 00 00
	00 00 00 00 00	 mov	 DWORD PTR [rax+184], 0

; 829  :    s->img_buffer = s->img_buffer_original = (stbi_uc *) buffer;

  00048	48 8b 44 24 40	 mov	 rax, QWORD PTR s$[rsp]
  0004d	48 8b 4c 24 48	 mov	 rcx, QWORD PTR buffer$[rsp]
  00052	48 89 88 d0 00
	00 00		 mov	 QWORD PTR [rax+208], rcx
  00059	48 8b 44 24 40	 mov	 rax, QWORD PTR s$[rsp]
  0005e	48 8b 4c 24 48	 mov	 rcx, QWORD PTR buffer$[rsp]
  00063	48 89 88 c0 00
	00 00		 mov	 QWORD PTR [rax+192], rcx

; 830  :    s->img_buffer_end = s->img_buffer_original_end = (stbi_uc *) buffer+len;

  0006a	48 63 44 24 50	 movsxd	 rax, DWORD PTR len$[rsp]
  0006f	48 8b 4c 24 48	 mov	 rcx, QWORD PTR buffer$[rsp]
  00074	48 03 c8	 add	 rcx, rax
  00077	48 89 4c 24 20	 mov	 QWORD PTR tv72[rsp], rcx
  0007c	48 8b 44 24 40	 mov	 rax, QWORD PTR s$[rsp]
  00081	48 8b 4c 24 20	 mov	 rcx, QWORD PTR tv72[rsp]
  00086	48 89 88 d8 00
	00 00		 mov	 QWORD PTR [rax+216], rcx
  0008d	48 8b 44 24 40	 mov	 rax, QWORD PTR s$[rsp]
  00092	48 8b 4c 24 20	 mov	 rcx, QWORD PTR tv72[rsp]
  00097	48 89 88 c8 00
	00 00		 mov	 QWORD PTR [rax+200], rcx

; 831  : }

  0009e	48 83 c4 30	 add	 rsp, 48			; 00000030H
  000a2	5f		 pop	 rdi
  000a3	c3		 ret	 0
stbi__start_mem ENDP
_TEXT	ENDS
; Function compile flags: /Odtp /RTCsu
; File C:\Users\drago\source\repos\cGame - less comments\cGame\includes\stb-master\stb_image.h
_TEXT	SEGMENT
tv72 = 32
s$ = 80
c$ = 88
user$ = 96
stbi__start_callbacks PROC

; 835  : {

  00000	4c 89 44 24 18	 mov	 QWORD PTR [rsp+24], r8
  00005	48 89 54 24 10	 mov	 QWORD PTR [rsp+16], rdx
  0000a	48 89 4c 24 08	 mov	 QWORD PTR [rsp+8], rcx
  0000f	56		 push	 rsi
  00010	57		 push	 rdi
  00011	48 83 ec 38	 sub	 rsp, 56			; 00000038H
  00015	48 8d 0d 00 00
	00 00		 lea	 rcx, OFFSET FLAT:__D1DC2946_EntityManager@h
  0001c	e8 00 00 00 00	 call	 __CheckForDebuggerJustMyCode

; 836  :    s->io = *c;

  00021	48 8b 44 24 50	 mov	 rax, QWORD PTR s$[rsp]
  00026	48 8d 78 10	 lea	 rdi, QWORD PTR [rax+16]
  0002a	48 8b 74 24 58	 mov	 rsi, QWORD PTR c$[rsp]
  0002f	b9 18 00 00 00	 mov	 ecx, 24
  00034	f3 a4		 rep movsb

; 837  :    s->io_user_data = user;

  00036	48 8b 44 24 50	 mov	 rax, QWORD PTR s$[rsp]
  0003b	48 8b 4c 24 60	 mov	 rcx, QWORD PTR user$[rsp]
  00040	48 89 48 28	 mov	 QWORD PTR [rax+40], rcx

; 838  :    s->buflen = sizeof(s->buffer_start);

  00044	48 8b 44 24 50	 mov	 rax, QWORD PTR s$[rsp]
  00049	c7 40 34 80 00
	00 00		 mov	 DWORD PTR [rax+52], 128	; 00000080H

; 839  :    s->read_from_callbacks = 1;

  00050	48 8b 44 24 50	 mov	 rax, QWORD PTR s$[rsp]
  00055	c7 40 30 01 00
	00 00		 mov	 DWORD PTR [rax+48], 1

; 840  :    s->callback_already_read = 0;

  0005c	48 8b 44 24 50	 mov	 rax, QWORD PTR s$[rsp]
  00061	c7 80 b8 00 00
	00 00 00 00 00	 mov	 DWORD PTR [rax+184], 0

; 841  :    s->img_buffer = s->img_buffer_original = s->buffer_start;

  0006b	48 8b 44 24 50	 mov	 rax, QWORD PTR s$[rsp]
  00070	48 83 c0 38	 add	 rax, 56			; 00000038H
  00074	48 89 44 24 20	 mov	 QWORD PTR tv72[rsp], rax
  00079	48 8b 44 24 50	 mov	 rax, QWORD PTR s$[rsp]
  0007e	48 8b 4c 24 20	 mov	 rcx, QWORD PTR tv72[rsp]
  00083	48 89 88 d0 00
	00 00		 mov	 QWORD PTR [rax+208], rcx
  0008a	48 8b 44 24 50	 mov	 rax, QWORD PTR s$[rsp]
  0008f	48 8b 4c 24 20	 mov	 rcx, QWORD PTR tv72[rsp]
  00094	48 89 88 c0 00
	00 00		 mov	 QWORD PTR [rax+192], rcx

; 842  :    stbi__refill_buffer(s);

  0009b	48 8b 4c 24 50	 mov	 rcx, QWORD PTR s$[rsp]
  000a0	e8 00 00 00 00	 call	 stbi__refill_buffer

; 843  :    s->img_buffer_original_end = s->img_buffer_end;

  000a5	48 8b 44 24 50	 mov	 rax, QWORD PTR s$[rsp]
  000aa	48 8b 4c 24 50	 mov	 rcx, QWORD PTR s$[rsp]
  000af	48 8b 89 c8 00
	00 00		 mov	 rcx, QWORD PTR [rcx+200]
  000b6	48 89 88 d8 00
	00 00		 mov	 QWORD PTR [rax+216], rcx

; 844  : }

  000bd	48 83 c4 38	 add	 rsp, 56			; 00000038H
  000c1	5f		 pop	 rdi
  000c2	5e		 pop	 rsi
  000c3	c3		 ret	 0
stbi__start_callbacks ENDP
_TEXT	ENDS
; Function compile flags: /Odtp /RTCsu
; File C:\Users\drago\source\repos\cGame - less comments\cGame\includes\stb-master\stb_image.h
_TEXT	SEGMENT
user$ = 48
data$ = 56
size$ = 64
stbi__stdio_read PROC

; 849  : {

  00000	44 89 44 24 18	 mov	 DWORD PTR [rsp+24], r8d
  00005	48 89 54 24 10	 mov	 QWORD PTR [rsp+16], rdx
  0000a	48 89 4c 24 08	 mov	 QWORD PTR [rsp+8], rcx
  0000f	57		 push	 rdi
  00010	48 83 ec 20	 sub	 rsp, 32			; 00000020H
  00014	48 8d 0d 00 00
	00 00		 lea	 rcx, OFFSET FLAT:__D1DC2946_EntityManager@h
  0001b	e8 00 00 00 00	 call	 __CheckForDebuggerJustMyCode

; 850  :    return (int) fread(data,1,size,(FILE*) user);

  00020	48 63 44 24 40	 movsxd	 rax, DWORD PTR size$[rsp]
  00025	4c 8b 4c 24 30	 mov	 r9, QWORD PTR user$[rsp]
  0002a	4c 8b c0	 mov	 r8, rax
  0002d	ba 01 00 00 00	 mov	 edx, 1
  00032	48 8b 4c 24 38	 mov	 rcx, QWORD PTR data$[rsp]
  00037	ff 15 00 00 00
	00		 call	 QWORD PTR __imp_fread

; 851  : }

  0003d	48 83 c4 20	 add	 rsp, 32			; 00000020H
  00041	5f		 pop	 rdi
  00042	c3		 ret	 0
stbi__stdio_read ENDP
_TEXT	ENDS
; Function compile flags: /Odtp /RTCsu
; File C:\Users\drago\source\repos\cGame - less comments\cGame\includes\stb-master\stb_image.h
_TEXT	SEGMENT
ch$ = 32
user$ = 64
n$ = 72
stbi__stdio_skip PROC

; 854  : {

  00000	89 54 24 10	 mov	 DWORD PTR [rsp+16], edx
  00004	48 89 4c 24 08	 mov	 QWORD PTR [rsp+8], rcx
  00009	57		 push	 rdi
  0000a	48 83 ec 30	 sub	 rsp, 48			; 00000030H
  0000e	48 8d 0d 00 00
	00 00		 lea	 rcx, OFFSET FLAT:__D1DC2946_EntityManager@h
  00015	e8 00 00 00 00	 call	 __CheckForDebuggerJustMyCode

; 855  :    int ch;
; 856  :    fseek((FILE*) user, n, SEEK_CUR);

  0001a	41 b8 01 00 00
	00		 mov	 r8d, 1
  00020	8b 54 24 48	 mov	 edx, DWORD PTR n$[rsp]
  00024	48 8b 4c 24 40	 mov	 rcx, QWORD PTR user$[rsp]
  00029	ff 15 00 00 00
	00		 call	 QWORD PTR __imp_fseek

; 857  :    ch = fgetc((FILE*) user);  /* have to read a byte to reset feof()'s flag */

  0002f	48 8b 4c 24 40	 mov	 rcx, QWORD PTR user$[rsp]
  00034	ff 15 00 00 00
	00		 call	 QWORD PTR __imp_fgetc
  0003a	89 44 24 20	 mov	 DWORD PTR ch$[rsp], eax

; 858  :    if (ch != EOF) {

  0003e	83 7c 24 20 ff	 cmp	 DWORD PTR ch$[rsp], -1
  00043	74 10		 je	 SHORT $LN2@stbi__stdi

; 859  :       ungetc(ch, (FILE *) user);  /* push byte back onto stream if valid. */

  00045	48 8b 54 24 40	 mov	 rdx, QWORD PTR user$[rsp]
  0004a	8b 4c 24 20	 mov	 ecx, DWORD PTR ch$[rsp]
  0004e	ff 15 00 00 00
	00		 call	 QWORD PTR __imp_ungetc
  00054	90		 npad	 1
$LN2@stbi__stdi:

; 860  :    }
; 861  : }

  00055	48 83 c4 30	 add	 rsp, 48			; 00000030H
  00059	5f		 pop	 rdi
  0005a	c3		 ret	 0
stbi__stdio_skip ENDP
_TEXT	ENDS
; Function compile flags: /Odtp /RTCsu
; File C:\Users\drago\source\repos\cGame - less comments\cGame\includes\stb-master\stb_image.h
_TEXT	SEGMENT
tv70 = 32
user$ = 64
stbi__stdio_eof PROC

; 864  : {

  00000	48 89 4c 24 08	 mov	 QWORD PTR [rsp+8], rcx
  00005	57		 push	 rdi
  00006	48 83 ec 30	 sub	 rsp, 48			; 00000030H
  0000a	48 8d 0d 00 00
	00 00		 lea	 rcx, OFFSET FLAT:__D1DC2946_EntityManager@h
  00011	e8 00 00 00 00	 call	 __CheckForDebuggerJustMyCode

; 865  :    return feof((FILE*) user) || ferror((FILE *) user);

  00016	48 8b 4c 24 40	 mov	 rcx, QWORD PTR user$[rsp]
  0001b	ff 15 00 00 00
	00		 call	 QWORD PTR __imp_feof
  00021	85 c0		 test	 eax, eax
  00023	75 19		 jne	 SHORT $LN3@stbi__stdi
  00025	48 8b 4c 24 40	 mov	 rcx, QWORD PTR user$[rsp]
  0002a	ff 15 00 00 00
	00		 call	 QWORD PTR __imp_ferror
  00030	85 c0		 test	 eax, eax
  00032	75 0a		 jne	 SHORT $LN3@stbi__stdi
  00034	c7 44 24 20 00
	00 00 00	 mov	 DWORD PTR tv70[rsp], 0
  0003c	eb 08		 jmp	 SHORT $LN4@stbi__stdi
$LN3@stbi__stdi:
  0003e	c7 44 24 20 01
	00 00 00	 mov	 DWORD PTR tv70[rsp], 1
$LN4@stbi__stdi:
  00046	8b 44 24 20	 mov	 eax, DWORD PTR tv70[rsp]

; 866  : }

  0004a	48 83 c4 30	 add	 rsp, 48			; 00000030H
  0004e	5f		 pop	 rdi
  0004f	c3		 ret	 0
stbi__stdio_eof ENDP
_TEXT	ENDS
; Function compile flags: /Odtp /RTCsu
; File C:\Users\drago\source\repos\cGame - less comments\cGame\includes\stb-master\stb_image.h
_TEXT	SEGMENT
s$ = 48
f$ = 56
stbi__start_file PROC

; 876  : {

  00000	48 89 54 24 10	 mov	 QWORD PTR [rsp+16], rdx
  00005	48 89 4c 24 08	 mov	 QWORD PTR [rsp+8], rcx
  0000a	57		 push	 rdi
  0000b	48 83 ec 20	 sub	 rsp, 32			; 00000020H
  0000f	48 8d 0d 00 00
	00 00		 lea	 rcx, OFFSET FLAT:__D1DC2946_EntityManager@h
  00016	e8 00 00 00 00	 call	 __CheckForDebuggerJustMyCode

; 877  :    stbi__start_callbacks(s, &stbi__stdio_callbacks, (void *) f);

  0001b	4c 8b 44 24 38	 mov	 r8, QWORD PTR f$[rsp]
  00020	48 8d 15 00 00
	00 00		 lea	 rdx, OFFSET FLAT:stbi__stdio_callbacks
  00027	48 8b 4c 24 30	 mov	 rcx, QWORD PTR s$[rsp]
  0002c	e8 00 00 00 00	 call	 stbi__start_callbacks
  00031	90		 npad	 1

; 878  : }

  00032	48 83 c4 20	 add	 rsp, 32			; 00000020H
  00036	5f		 pop	 rdi
  00037	c3		 ret	 0
stbi__start_file ENDP
_TEXT	ENDS
; Function compile flags: /Odtp /RTCsu
; File C:\Users\drago\source\repos\cGame - less comments\cGame\includes\stb-master\stb_image.h
_TEXT	SEGMENT
s$ = 48
stbi__rewind PROC

; 885  : {

  00000	48 89 4c 24 08	 mov	 QWORD PTR [rsp+8], rcx
  00005	57		 push	 rdi
  00006	48 83 ec 20	 sub	 rsp, 32			; 00000020H
  0000a	48 8d 0d 00 00
	00 00		 lea	 rcx, OFFSET FLAT:__D1DC2946_EntityManager@h
  00011	e8 00 00 00 00	 call	 __CheckForDebuggerJustMyCode

; 886  :    // conceptually rewind SHOULD rewind to the beginning of the stream,
; 887  :    // but we just rewind to the beginning of the initial buffer, because
; 888  :    // we only use it after doing 'test', which only ever looks at at most 92 bytes
; 889  :    s->img_buffer = s->img_buffer_original;

  00016	48 8b 44 24 30	 mov	 rax, QWORD PTR s$[rsp]
  0001b	48 8b 4c 24 30	 mov	 rcx, QWORD PTR s$[rsp]
  00020	48 8b 89 d0 00
	00 00		 mov	 rcx, QWORD PTR [rcx+208]
  00027	48 89 88 c0 00
	00 00		 mov	 QWORD PTR [rax+192], rcx

; 890  :    s->img_buffer_end = s->img_buffer_original_end;

  0002e	48 8b 44 24 30	 mov	 rax, QWORD PTR s$[rsp]
  00033	48 8b 4c 24 30	 mov	 rcx, QWORD PTR s$[rsp]
  00038	48 8b 89 d8 00
	00 00		 mov	 rcx, QWORD PTR [rcx+216]
  0003f	48 89 88 c8 00
	00 00		 mov	 QWORD PTR [rax+200], rcx

; 891  : }

  00046	48 83 c4 20	 add	 rsp, 32			; 00000020H
  0004a	5f		 pop	 rdi
  0004b	c3		 ret	 0
stbi__rewind ENDP
_TEXT	ENDS
; Function compile flags: /Odtp /RTCsu
; File C:\Users\drago\source\repos\cGame - less comments\cGame\includes\stb-master\stb_image.h
_TEXT	SEGMENT
str$ = 48
stbi__err PROC

; 977  : {

  00000	48 89 4c 24 08	 mov	 QWORD PTR [rsp+8], rcx
  00005	57		 push	 rdi
  00006	48 83 ec 20	 sub	 rsp, 32			; 00000020H
  0000a	48 8d 0d 00 00
	00 00		 lea	 rcx, OFFSET FLAT:__D1DC2946_EntityManager@h
  00011	e8 00 00 00 00	 call	 __CheckForDebuggerJustMyCode

; 978  :    stbi__g_failure_reason = str;

  00016	b8 00 00 00 00	 mov	 eax, OFFSET FLAT:stbi__g_failure_reason
  0001b	8b c0		 mov	 eax, eax
  0001d	65 48 8b 0c 25
	58 00 00 00	 mov	 rcx, QWORD PTR gs:88
  00026	48 8b 09	 mov	 rcx, QWORD PTR [rcx]
  00029	48 8b 54 24 30	 mov	 rdx, QWORD PTR str$[rsp]
  0002e	48 89 14 08	 mov	 QWORD PTR [rax+rcx], rdx

; 979  :    return 0;

  00032	33 c0		 xor	 eax, eax

; 980  : }

  00034	48 83 c4 20	 add	 rsp, 32			; 00000020H
  00038	5f		 pop	 rdi
  00039	c3		 ret	 0
stbi__err ENDP
_TEXT	ENDS
; Function compile flags: /Odtp /RTCsu
; File C:\Users\drago\source\repos\cGame - less comments\cGame\includes\stb-master\stb_image.h
_TEXT	SEGMENT
size$ = 48
stbi__malloc PROC

; 984  : {

  00000	48 89 4c 24 08	 mov	 QWORD PTR [rsp+8], rcx
  00005	57		 push	 rdi
  00006	48 83 ec 20	 sub	 rsp, 32			; 00000020H
  0000a	48 8d 0d 00 00
	00 00		 lea	 rcx, OFFSET FLAT:__D1DC2946_EntityManager@h
  00011	e8 00 00 00 00	 call	 __CheckForDebuggerJustMyCode

; 985  :     return STBI_MALLOC(size);

  00016	48 8b 4c 24 30	 mov	 rcx, QWORD PTR size$[rsp]
  0001b	ff 15 00 00 00
	00		 call	 QWORD PTR __imp_malloc

; 986  : }

  00021	48 83 c4 20	 add	 rsp, 32			; 00000020H
  00025	5f		 pop	 rdi
  00026	c3		 ret	 0
stbi__malloc ENDP
_TEXT	ENDS
; Function compile flags: /Odtp /RTCsu
; File C:\Users\drago\source\repos\cGame - less comments\cGame\includes\stb-master\stb_image.h
_TEXT	SEGMENT
tv67 = 32
a$ = 64
b$ = 72
stbi__addsizes_valid PROC

; 1001 : {

  00000	89 54 24 10	 mov	 DWORD PTR [rsp+16], edx
  00004	89 4c 24 08	 mov	 DWORD PTR [rsp+8], ecx
  00008	57		 push	 rdi
  00009	48 83 ec 30	 sub	 rsp, 48			; 00000030H
  0000d	48 8d 0d 00 00
	00 00		 lea	 rcx, OFFSET FLAT:__D1DC2946_EntityManager@h
  00014	e8 00 00 00 00	 call	 __CheckForDebuggerJustMyCode

; 1002 :    if (b < 0) return 0;

  00019	83 7c 24 48 00	 cmp	 DWORD PTR b$[rsp], 0
  0001e	7d 04		 jge	 SHORT $LN2@stbi__adds
  00020	33 c0		 xor	 eax, eax
  00022	eb 25		 jmp	 SHORT $LN1@stbi__adds
$LN2@stbi__adds:

; 1003 :    // now 0 <= b <= INT_MAX, hence also
; 1004 :    // 0 <= INT_MAX - b <= INTMAX.
; 1005 :    // And "a + b <= INT_MAX" (which might overflow) is the
; 1006 :    // same as a <= INT_MAX - b (no overflow)
; 1007 :    return a <= INT_MAX - b;

  00024	b8 ff ff ff 7f	 mov	 eax, 2147483647		; 7fffffffH
  00029	2b 44 24 48	 sub	 eax, DWORD PTR b$[rsp]
  0002d	39 44 24 40	 cmp	 DWORD PTR a$[rsp], eax
  00031	7f 0a		 jg	 SHORT $LN4@stbi__adds
  00033	c7 44 24 20 01
	00 00 00	 mov	 DWORD PTR tv67[rsp], 1
  0003b	eb 08		 jmp	 SHORT $LN5@stbi__adds
$LN4@stbi__adds:
  0003d	c7 44 24 20 00
	00 00 00	 mov	 DWORD PTR tv67[rsp], 0
$LN5@stbi__adds:
  00045	8b 44 24 20	 mov	 eax, DWORD PTR tv67[rsp]
$LN1@stbi__adds:

; 1008 : }

  00049	48 83 c4 30	 add	 rsp, 48			; 00000030H
  0004d	5f		 pop	 rdi
  0004e	c3		 ret	 0
stbi__addsizes_valid ENDP
_TEXT	ENDS
; Function compile flags: /Odtp /RTCsu
; File C:\Users\drago\source\repos\cGame - less comments\cGame\includes\stb-master\stb_image.h
_TEXT	SEGMENT
tv69 = 32
a$ = 64
b$ = 72
stbi__mul2sizes_valid PROC

; 1013 : {

  00000	89 54 24 10	 mov	 DWORD PTR [rsp+16], edx
  00004	89 4c 24 08	 mov	 DWORD PTR [rsp+8], ecx
  00008	57		 push	 rdi
  00009	48 83 ec 30	 sub	 rsp, 48			; 00000030H
  0000d	48 8d 0d 00 00
	00 00		 lea	 rcx, OFFSET FLAT:__D1DC2946_EntityManager@h
  00014	e8 00 00 00 00	 call	 __CheckForDebuggerJustMyCode

; 1014 :    if (a < 0 || b < 0) return 0;

  00019	83 7c 24 40 00	 cmp	 DWORD PTR a$[rsp], 0
  0001e	7c 07		 jl	 SHORT $LN3@stbi__mul2
  00020	83 7c 24 48 00	 cmp	 DWORD PTR b$[rsp], 0
  00025	7d 04		 jge	 SHORT $LN2@stbi__mul2
$LN3@stbi__mul2:
  00027	33 c0		 xor	 eax, eax
  00029	eb 34		 jmp	 SHORT $LN1@stbi__mul2
$LN2@stbi__mul2:

; 1015 :    if (b == 0) return 1; // mul-by-0 is always safe

  0002b	83 7c 24 48 00	 cmp	 DWORD PTR b$[rsp], 0
  00030	75 07		 jne	 SHORT $LN4@stbi__mul2
  00032	b8 01 00 00 00	 mov	 eax, 1
  00037	eb 26		 jmp	 SHORT $LN1@stbi__mul2
$LN4@stbi__mul2:

; 1016 :    // portable way to check for no overflows in a*b
; 1017 :    return a <= INT_MAX/b;

  00039	b8 ff ff ff 7f	 mov	 eax, 2147483647		; 7fffffffH
  0003e	99		 cdq
  0003f	f7 7c 24 48	 idiv	 DWORD PTR b$[rsp]
  00043	39 44 24 40	 cmp	 DWORD PTR a$[rsp], eax
  00047	7f 0a		 jg	 SHORT $LN6@stbi__mul2
  00049	c7 44 24 20 01
	00 00 00	 mov	 DWORD PTR tv69[rsp], 1
  00051	eb 08		 jmp	 SHORT $LN7@stbi__mul2
$LN6@stbi__mul2:
  00053	c7 44 24 20 00
	00 00 00	 mov	 DWORD PTR tv69[rsp], 0
$LN7@stbi__mul2:
  0005b	8b 44 24 20	 mov	 eax, DWORD PTR tv69[rsp]
$LN1@stbi__mul2:

; 1018 : }

  0005f	48 83 c4 30	 add	 rsp, 48			; 00000030H
  00063	5f		 pop	 rdi
  00064	c3		 ret	 0
stbi__mul2sizes_valid ENDP
_TEXT	ENDS
; Function compile flags: /Odtp /RTCsu
; File C:\Users\drago\source\repos\cGame - less comments\cGame\includes\stb-master\stb_image.h
_TEXT	SEGMENT
tv73 = 32
a$ = 64
b$ = 72
add$ = 80
stbi__mad2sizes_valid PROC

; 1023 : {

  00000	44 89 44 24 18	 mov	 DWORD PTR [rsp+24], r8d
  00005	89 54 24 10	 mov	 DWORD PTR [rsp+16], edx
  00009	89 4c 24 08	 mov	 DWORD PTR [rsp+8], ecx
  0000d	57		 push	 rdi
  0000e	48 83 ec 30	 sub	 rsp, 48			; 00000030H
  00012	48 8d 0d 00 00
	00 00		 lea	 rcx, OFFSET FLAT:__D1DC2946_EntityManager@h
  00019	e8 00 00 00 00	 call	 __CheckForDebuggerJustMyCode

; 1024 :    return stbi__mul2sizes_valid(a, b) && stbi__addsizes_valid(a*b, add);

  0001e	8b 54 24 48	 mov	 edx, DWORD PTR b$[rsp]
  00022	8b 4c 24 40	 mov	 ecx, DWORD PTR a$[rsp]
  00026	e8 00 00 00 00	 call	 stbi__mul2sizes_valid
  0002b	85 c0		 test	 eax, eax
  0002d	74 22		 je	 SHORT $LN3@stbi__mad2
  0002f	8b 44 24 40	 mov	 eax, DWORD PTR a$[rsp]
  00033	0f af 44 24 48	 imul	 eax, DWORD PTR b$[rsp]
  00038	8b 54 24 50	 mov	 edx, DWORD PTR add$[rsp]
  0003c	8b c8		 mov	 ecx, eax
  0003e	e8 00 00 00 00	 call	 stbi__addsizes_valid
  00043	85 c0		 test	 eax, eax
  00045	74 0a		 je	 SHORT $LN3@stbi__mad2
  00047	c7 44 24 20 01
	00 00 00	 mov	 DWORD PTR tv73[rsp], 1
  0004f	eb 08		 jmp	 SHORT $LN4@stbi__mad2
$LN3@stbi__mad2:
  00051	c7 44 24 20 00
	00 00 00	 mov	 DWORD PTR tv73[rsp], 0
$LN4@stbi__mad2:
  00059	8b 44 24 20	 mov	 eax, DWORD PTR tv73[rsp]

; 1025 : }

  0005d	48 83 c4 30	 add	 rsp, 48			; 00000030H
  00061	5f		 pop	 rdi
  00062	c3		 ret	 0
stbi__mad2sizes_valid ENDP
_TEXT	ENDS
; Function compile flags: /Odtp /RTCsu
; File C:\Users\drago\source\repos\cGame - less comments\cGame\includes\stb-master\stb_image.h
_TEXT	SEGMENT
tv79 = 32
a$ = 64
b$ = 72
c$ = 80
add$ = 88
stbi__mad3sizes_valid PROC

; 1030 : {

  00000	44 89 4c 24 20	 mov	 DWORD PTR [rsp+32], r9d
  00005	44 89 44 24 18	 mov	 DWORD PTR [rsp+24], r8d
  0000a	89 54 24 10	 mov	 DWORD PTR [rsp+16], edx
  0000e	89 4c 24 08	 mov	 DWORD PTR [rsp+8], ecx
  00012	57		 push	 rdi
  00013	48 83 ec 30	 sub	 rsp, 48			; 00000030H
  00017	48 8d 0d 00 00
	00 00		 lea	 rcx, OFFSET FLAT:__D1DC2946_EntityManager@h
  0001e	e8 00 00 00 00	 call	 __CheckForDebuggerJustMyCode

; 1031 :    return stbi__mul2sizes_valid(a, b) && stbi__mul2sizes_valid(a*b, c) &&

  00023	8b 54 24 48	 mov	 edx, DWORD PTR b$[rsp]
  00027	8b 4c 24 40	 mov	 ecx, DWORD PTR a$[rsp]
  0002b	e8 00 00 00 00	 call	 stbi__mul2sizes_valid
  00030	85 c0		 test	 eax, eax
  00032	74 3f		 je	 SHORT $LN3@stbi__mad3
  00034	8b 44 24 40	 mov	 eax, DWORD PTR a$[rsp]
  00038	0f af 44 24 48	 imul	 eax, DWORD PTR b$[rsp]
  0003d	8b 54 24 50	 mov	 edx, DWORD PTR c$[rsp]
  00041	8b c8		 mov	 ecx, eax
  00043	e8 00 00 00 00	 call	 stbi__mul2sizes_valid
  00048	85 c0		 test	 eax, eax
  0004a	74 27		 je	 SHORT $LN3@stbi__mad3
  0004c	8b 44 24 40	 mov	 eax, DWORD PTR a$[rsp]
  00050	0f af 44 24 48	 imul	 eax, DWORD PTR b$[rsp]
  00055	0f af 44 24 50	 imul	 eax, DWORD PTR c$[rsp]
  0005a	8b 54 24 58	 mov	 edx, DWORD PTR add$[rsp]
  0005e	8b c8		 mov	 ecx, eax
  00060	e8 00 00 00 00	 call	 stbi__addsizes_valid
  00065	85 c0		 test	 eax, eax
  00067	74 0a		 je	 SHORT $LN3@stbi__mad3
  00069	c7 44 24 20 01
	00 00 00	 mov	 DWORD PTR tv79[rsp], 1
  00071	eb 08		 jmp	 SHORT $LN4@stbi__mad3
$LN3@stbi__mad3:
  00073	c7 44 24 20 00
	00 00 00	 mov	 DWORD PTR tv79[rsp], 0
$LN4@stbi__mad3:
  0007b	8b 44 24 20	 mov	 eax, DWORD PTR tv79[rsp]

; 1032 :       stbi__addsizes_valid(a*b*c, add);
; 1033 : }

  0007f	48 83 c4 30	 add	 rsp, 48			; 00000030H
  00083	5f		 pop	 rdi
  00084	c3		 ret	 0
stbi__mad3sizes_valid ENDP
_TEXT	ENDS
; Function compile flags: /Odtp /RTCsu
; File C:\Users\drago\source\repos\cGame - less comments\cGame\includes\stb-master\stb_image.h
_TEXT	SEGMENT
tv86 = 32
a$ = 64
b$ = 72
c$ = 80
d$ = 88
add$ = 96
stbi__mad4sizes_valid PROC

; 1038 : {

  00000	44 89 4c 24 20	 mov	 DWORD PTR [rsp+32], r9d
  00005	44 89 44 24 18	 mov	 DWORD PTR [rsp+24], r8d
  0000a	89 54 24 10	 mov	 DWORD PTR [rsp+16], edx
  0000e	89 4c 24 08	 mov	 DWORD PTR [rsp+8], ecx
  00012	57		 push	 rdi
  00013	48 83 ec 30	 sub	 rsp, 48			; 00000030H
  00017	48 8d 0d 00 00
	00 00		 lea	 rcx, OFFSET FLAT:__D1DC2946_EntityManager@h
  0001e	e8 00 00 00 00	 call	 __CheckForDebuggerJustMyCode

; 1039 :    return stbi__mul2sizes_valid(a, b) && stbi__mul2sizes_valid(a*b, c) &&

  00023	8b 54 24 48	 mov	 edx, DWORD PTR b$[rsp]
  00027	8b 4c 24 40	 mov	 ecx, DWORD PTR a$[rsp]
  0002b	e8 00 00 00 00	 call	 stbi__mul2sizes_valid
  00030	85 c0		 test	 eax, eax
  00032	74 61		 je	 SHORT $LN3@stbi__mad4
  00034	8b 44 24 40	 mov	 eax, DWORD PTR a$[rsp]
  00038	0f af 44 24 48	 imul	 eax, DWORD PTR b$[rsp]
  0003d	8b 54 24 50	 mov	 edx, DWORD PTR c$[rsp]
  00041	8b c8		 mov	 ecx, eax
  00043	e8 00 00 00 00	 call	 stbi__mul2sizes_valid
  00048	85 c0		 test	 eax, eax
  0004a	74 49		 je	 SHORT $LN3@stbi__mad4
  0004c	8b 44 24 40	 mov	 eax, DWORD PTR a$[rsp]
  00050	0f af 44 24 48	 imul	 eax, DWORD PTR b$[rsp]
  00055	0f af 44 24 50	 imul	 eax, DWORD PTR c$[rsp]
  0005a	8b 54 24 58	 mov	 edx, DWORD PTR d$[rsp]
  0005e	8b c8		 mov	 ecx, eax
  00060	e8 00 00 00 00	 call	 stbi__mul2sizes_valid
  00065	85 c0		 test	 eax, eax
  00067	74 2c		 je	 SHORT $LN3@stbi__mad4
  00069	8b 44 24 40	 mov	 eax, DWORD PTR a$[rsp]
  0006d	0f af 44 24 48	 imul	 eax, DWORD PTR b$[rsp]
  00072	0f af 44 24 50	 imul	 eax, DWORD PTR c$[rsp]
  00077	0f af 44 24 58	 imul	 eax, DWORD PTR d$[rsp]
  0007c	8b 54 24 60	 mov	 edx, DWORD PTR add$[rsp]
  00080	8b c8		 mov	 ecx, eax
  00082	e8 00 00 00 00	 call	 stbi__addsizes_valid
  00087	85 c0		 test	 eax, eax
  00089	74 0a		 je	 SHORT $LN3@stbi__mad4
  0008b	c7 44 24 20 01
	00 00 00	 mov	 DWORD PTR tv86[rsp], 1
  00093	eb 08		 jmp	 SHORT $LN4@stbi__mad4
$LN3@stbi__mad4:
  00095	c7 44 24 20 00
	00 00 00	 mov	 DWORD PTR tv86[rsp], 0
$LN4@stbi__mad4:
  0009d	8b 44 24 20	 mov	 eax, DWORD PTR tv86[rsp]

; 1040 :       stbi__mul2sizes_valid(a*b*c, d) && stbi__addsizes_valid(a*b*c*d, add);
; 1041 : }

  000a1	48 83 c4 30	 add	 rsp, 48			; 00000030H
  000a5	5f		 pop	 rdi
  000a6	c3		 ret	 0
stbi__mad4sizes_valid ENDP
_TEXT	ENDS
; Function compile flags: /Odtp /RTCsu
; File C:\Users\drago\source\repos\cGame - less comments\cGame\includes\stb-master\stb_image.h
_TEXT	SEGMENT
a$ = 48
b$ = 56
add$ = 64
stbi__malloc_mad2 PROC

; 1047 : {

  00000	44 89 44 24 18	 mov	 DWORD PTR [rsp+24], r8d
  00005	89 54 24 10	 mov	 DWORD PTR [rsp+16], edx
  00009	89 4c 24 08	 mov	 DWORD PTR [rsp+8], ecx
  0000d	57		 push	 rdi
  0000e	48 83 ec 20	 sub	 rsp, 32			; 00000020H
  00012	48 8d 0d 00 00
	00 00		 lea	 rcx, OFFSET FLAT:__D1DC2946_EntityManager@h
  00019	e8 00 00 00 00	 call	 __CheckForDebuggerJustMyCode

; 1048 :    if (!stbi__mad2sizes_valid(a, b, add)) return NULL;

  0001e	44 8b 44 24 40	 mov	 r8d, DWORD PTR add$[rsp]
  00023	8b 54 24 38	 mov	 edx, DWORD PTR b$[rsp]
  00027	8b 4c 24 30	 mov	 ecx, DWORD PTR a$[rsp]
  0002b	e8 00 00 00 00	 call	 stbi__mad2sizes_valid
  00030	85 c0		 test	 eax, eax
  00032	75 04		 jne	 SHORT $LN2@stbi__mall
  00034	33 c0		 xor	 eax, eax
  00036	eb 17		 jmp	 SHORT $LN1@stbi__mall
$LN2@stbi__mall:

; 1049 :    return stbi__malloc(a*b + add);

  00038	8b 44 24 30	 mov	 eax, DWORD PTR a$[rsp]
  0003c	0f af 44 24 38	 imul	 eax, DWORD PTR b$[rsp]
  00041	03 44 24 40	 add	 eax, DWORD PTR add$[rsp]
  00045	48 98		 cdqe
  00047	48 8b c8	 mov	 rcx, rax
  0004a	e8 00 00 00 00	 call	 stbi__malloc
$LN1@stbi__mall:

; 1050 : }

  0004f	48 83 c4 20	 add	 rsp, 32			; 00000020H
  00053	5f		 pop	 rdi
  00054	c3		 ret	 0
stbi__malloc_mad2 ENDP
_TEXT	ENDS
; Function compile flags: /Odtp /RTCsu
; File C:\Users\drago\source\repos\cGame - less comments\cGame\includes\stb-master\stb_image.h
_TEXT	SEGMENT
a$ = 48
b$ = 56
c$ = 64
add$ = 72
stbi__malloc_mad3 PROC

; 1054 : {

  00000	44 89 4c 24 20	 mov	 DWORD PTR [rsp+32], r9d
  00005	44 89 44 24 18	 mov	 DWORD PTR [rsp+24], r8d
  0000a	89 54 24 10	 mov	 DWORD PTR [rsp+16], edx
  0000e	89 4c 24 08	 mov	 DWORD PTR [rsp+8], ecx
  00012	57		 push	 rdi
  00013	48 83 ec 20	 sub	 rsp, 32			; 00000020H
  00017	48 8d 0d 00 00
	00 00		 lea	 rcx, OFFSET FLAT:__D1DC2946_EntityManager@h
  0001e	e8 00 00 00 00	 call	 __CheckForDebuggerJustMyCode

; 1055 :    if (!stbi__mad3sizes_valid(a, b, c, add)) return NULL;

  00023	44 8b 4c 24 48	 mov	 r9d, DWORD PTR add$[rsp]
  00028	44 8b 44 24 40	 mov	 r8d, DWORD PTR c$[rsp]
  0002d	8b 54 24 38	 mov	 edx, DWORD PTR b$[rsp]
  00031	8b 4c 24 30	 mov	 ecx, DWORD PTR a$[rsp]
  00035	e8 00 00 00 00	 call	 stbi__mad3sizes_valid
  0003a	85 c0		 test	 eax, eax
  0003c	75 04		 jne	 SHORT $LN2@stbi__mall
  0003e	33 c0		 xor	 eax, eax
  00040	eb 1c		 jmp	 SHORT $LN1@stbi__mall
$LN2@stbi__mall:

; 1056 :    return stbi__malloc(a*b*c + add);

  00042	8b 44 24 30	 mov	 eax, DWORD PTR a$[rsp]
  00046	0f af 44 24 38	 imul	 eax, DWORD PTR b$[rsp]
  0004b	0f af 44 24 40	 imul	 eax, DWORD PTR c$[rsp]
  00050	03 44 24 48	 add	 eax, DWORD PTR add$[rsp]
  00054	48 98		 cdqe
  00056	48 8b c8	 mov	 rcx, rax
  00059	e8 00 00 00 00	 call	 stbi__malloc
$LN1@stbi__mall:

; 1057 : }

  0005e	48 83 c4 20	 add	 rsp, 32			; 00000020H
  00062	5f		 pop	 rdi
  00063	c3		 ret	 0
stbi__malloc_mad3 ENDP
_TEXT	ENDS
; Function compile flags: /Odtp /RTCsu
; File C:\Users\drago\source\repos\cGame - less comments\cGame\includes\stb-master\stb_image.h
_TEXT	SEGMENT
a$ = 64
b$ = 72
c$ = 80
d$ = 88
add$ = 96
stbi__malloc_mad4 PROC

; 1061 : {

  00000	44 89 4c 24 20	 mov	 DWORD PTR [rsp+32], r9d
  00005	44 89 44 24 18	 mov	 DWORD PTR [rsp+24], r8d
  0000a	89 54 24 10	 mov	 DWORD PTR [rsp+16], edx
  0000e	89 4c 24 08	 mov	 DWORD PTR [rsp+8], ecx
  00012	57		 push	 rdi
  00013	48 83 ec 30	 sub	 rsp, 48			; 00000030H
  00017	48 8d 0d 00 00
	00 00		 lea	 rcx, OFFSET FLAT:__D1DC2946_EntityManager@h
  0001e	e8 00 00 00 00	 call	 __CheckForDebuggerJustMyCode

; 1062 :    if (!stbi__mad4sizes_valid(a, b, c, d, add)) return NULL;

  00023	8b 44 24 60	 mov	 eax, DWORD PTR add$[rsp]
  00027	89 44 24 20	 mov	 DWORD PTR [rsp+32], eax
  0002b	44 8b 4c 24 58	 mov	 r9d, DWORD PTR d$[rsp]
  00030	44 8b 44 24 50	 mov	 r8d, DWORD PTR c$[rsp]
  00035	8b 54 24 48	 mov	 edx, DWORD PTR b$[rsp]
  00039	8b 4c 24 40	 mov	 ecx, DWORD PTR a$[rsp]
  0003d	e8 00 00 00 00	 call	 stbi__mad4sizes_valid
  00042	85 c0		 test	 eax, eax
  00044	75 04		 jne	 SHORT $LN2@stbi__mall
  00046	33 c0		 xor	 eax, eax
  00048	eb 21		 jmp	 SHORT $LN1@stbi__mall
$LN2@stbi__mall:

; 1063 :    return stbi__malloc(a*b*c*d + add);

  0004a	8b 44 24 40	 mov	 eax, DWORD PTR a$[rsp]
  0004e	0f af 44 24 48	 imul	 eax, DWORD PTR b$[rsp]
  00053	0f af 44 24 50	 imul	 eax, DWORD PTR c$[rsp]
  00058	0f af 44 24 58	 imul	 eax, DWORD PTR d$[rsp]
  0005d	03 44 24 60	 add	 eax, DWORD PTR add$[rsp]
  00061	48 98		 cdqe
  00063	48 8b c8	 mov	 rcx, rax
  00066	e8 00 00 00 00	 call	 stbi__malloc
$LN1@stbi__mall:

; 1064 : }

  0006b	48 83 c4 30	 add	 rsp, 48			; 00000030H
  0006f	5f		 pop	 rdi
  00070	c3		 ret	 0
stbi__malloc_mad4 ENDP
_TEXT	ENDS
; Function compile flags: /Odtp /RTCsu
; File C:\Users\drago\source\repos\cGame - less comments\cGame\includes\stb-master\stb_image.h
_TEXT	SEGMENT
tv67 = 32
tv66 = 36
tv73 = 40
tv76 = 44
a$ = 64
b$ = 72
stbi__addints_valid PROC

; 1069 : {

  00000	89 54 24 10	 mov	 DWORD PTR [rsp+16], edx
  00004	89 4c 24 08	 mov	 DWORD PTR [rsp+8], ecx
  00008	57		 push	 rdi
  00009	48 83 ec 30	 sub	 rsp, 48			; 00000030H
  0000d	48 8d 0d 00 00
	00 00		 lea	 rcx, OFFSET FLAT:__D1DC2946_EntityManager@h
  00014	e8 00 00 00 00	 call	 __CheckForDebuggerJustMyCode

; 1070 :    if ((a >= 0) != (b >= 0)) return 1; // a and b have different signs, so no overflow

  00019	83 7c 24 40 00	 cmp	 DWORD PTR a$[rsp], 0
  0001e	7c 0a		 jl	 SHORT $LN7@stbi__addi
  00020	c7 44 24 20 01
	00 00 00	 mov	 DWORD PTR tv67[rsp], 1
  00028	eb 08		 jmp	 SHORT $LN8@stbi__addi
$LN7@stbi__addi:
  0002a	c7 44 24 20 00
	00 00 00	 mov	 DWORD PTR tv67[rsp], 0
$LN8@stbi__addi:
  00032	83 7c 24 48 00	 cmp	 DWORD PTR b$[rsp], 0
  00037	7c 0a		 jl	 SHORT $LN5@stbi__addi
  00039	c7 44 24 24 01
	00 00 00	 mov	 DWORD PTR tv66[rsp], 1
  00041	eb 08		 jmp	 SHORT $LN6@stbi__addi
$LN5@stbi__addi:
  00043	c7 44 24 24 00
	00 00 00	 mov	 DWORD PTR tv66[rsp], 0
$LN6@stbi__addi:
  0004b	8b 44 24 24	 mov	 eax, DWORD PTR tv66[rsp]
  0004f	39 44 24 20	 cmp	 DWORD PTR tv67[rsp], eax
  00053	74 07		 je	 SHORT $LN2@stbi__addi
  00055	b8 01 00 00 00	 mov	 eax, 1
  0005a	eb 5a		 jmp	 SHORT $LN1@stbi__addi
$LN2@stbi__addi:

; 1071 :    if (a < 0 && b < 0) return a >= INT_MIN - b; // same as a + b >= INT_MIN; INT_MIN - b cannot overflow since b < 0.

  0005c	83 7c 24 40 00	 cmp	 DWORD PTR a$[rsp], 0
  00061	7d 2e		 jge	 SHORT $LN3@stbi__addi
  00063	83 7c 24 48 00	 cmp	 DWORD PTR b$[rsp], 0
  00068	7d 27		 jge	 SHORT $LN3@stbi__addi
  0006a	b8 00 00 00 80	 mov	 eax, -2147483648	; ffffffff80000000H
  0006f	2b 44 24 48	 sub	 eax, DWORD PTR b$[rsp]
  00073	39 44 24 40	 cmp	 DWORD PTR a$[rsp], eax
  00077	7c 0a		 jl	 SHORT $LN9@stbi__addi
  00079	c7 44 24 28 01
	00 00 00	 mov	 DWORD PTR tv73[rsp], 1
  00081	eb 08		 jmp	 SHORT $LN10@stbi__addi
$LN9@stbi__addi:
  00083	c7 44 24 28 00
	00 00 00	 mov	 DWORD PTR tv73[rsp], 0
$LN10@stbi__addi:
  0008b	8b 44 24 28	 mov	 eax, DWORD PTR tv73[rsp]
  0008f	eb 25		 jmp	 SHORT $LN1@stbi__addi
$LN3@stbi__addi:

; 1072 :    return a <= INT_MAX - b;

  00091	b8 ff ff ff 7f	 mov	 eax, 2147483647		; 7fffffffH
  00096	2b 44 24 48	 sub	 eax, DWORD PTR b$[rsp]
  0009a	39 44 24 40	 cmp	 DWORD PTR a$[rsp], eax
  0009e	7f 0a		 jg	 SHORT $LN11@stbi__addi
  000a0	c7 44 24 2c 01
	00 00 00	 mov	 DWORD PTR tv76[rsp], 1
  000a8	eb 08		 jmp	 SHORT $LN12@stbi__addi
$LN11@stbi__addi:
  000aa	c7 44 24 2c 00
	00 00 00	 mov	 DWORD PTR tv76[rsp], 0
$LN12@stbi__addi:
  000b2	8b 44 24 2c	 mov	 eax, DWORD PTR tv76[rsp]
$LN1@stbi__addi:

; 1073 : }

  000b6	48 83 c4 30	 add	 rsp, 48			; 00000030H
  000ba	5f		 pop	 rdi
  000bb	c3		 ret	 0
stbi__addints_valid ENDP
_TEXT	ENDS
; Function compile flags: /Odtp /RTCsu
; File C:\Users\drago\source\repos\cGame - less comments\cGame\includes\stb-master\stb_image.h
_TEXT	SEGMENT
tv73 = 32
tv72 = 36
tv75 = 40
tv79 = 44
tv82 = 48
tv86 = 52
tv87 = 56
tv91 = 60
a$ = 80
b$ = 88
stbi__mul2shorts_valid PROC

; 1077 : {

  00000	66 89 54 24 10	 mov	 WORD PTR [rsp+16], dx
  00005	66 89 4c 24 08	 mov	 WORD PTR [rsp+8], cx
  0000a	57		 push	 rdi
  0000b	48 83 ec 40	 sub	 rsp, 64			; 00000040H
  0000f	48 8d 0d 00 00
	00 00		 lea	 rcx, OFFSET FLAT:__D1DC2946_EntityManager@h
  00016	e8 00 00 00 00	 call	 __CheckForDebuggerJustMyCode

; 1078 :    if (b == 0 || b == -1) return 1; // multiplication by 0 is always 0; check for -1 so SHRT_MIN/b doesn't overflow

  0001b	0f bf 44 24 58	 movsx	 eax, WORD PTR b$[rsp]
  00020	85 c0		 test	 eax, eax
  00022	74 0a		 je	 SHORT $LN3@stbi__mul2
  00024	0f bf 44 24 58	 movsx	 eax, WORD PTR b$[rsp]
  00029	83 f8 ff	 cmp	 eax, -1
  0002c	75 0a		 jne	 SHORT $LN2@stbi__mul2
$LN3@stbi__mul2:
  0002e	b8 01 00 00 00	 mov	 eax, 1
  00033	e9 e9 00 00 00	 jmp	 $LN1@stbi__mul2
$LN2@stbi__mul2:

; 1079 :    if ((a >= 0) == (b >= 0)) return a <= SHRT_MAX/b; // product is positive, so similar to mul2sizes_valid

  00038	0f bf 44 24 50	 movsx	 eax, WORD PTR a$[rsp]
  0003d	85 c0		 test	 eax, eax
  0003f	7c 0a		 jl	 SHORT $LN9@stbi__mul2
  00041	c7 44 24 20 01
	00 00 00	 mov	 DWORD PTR tv73[rsp], 1
  00049	eb 08		 jmp	 SHORT $LN10@stbi__mul2
$LN9@stbi__mul2:
  0004b	c7 44 24 20 00
	00 00 00	 mov	 DWORD PTR tv73[rsp], 0
$LN10@stbi__mul2:
  00053	0f bf 44 24 58	 movsx	 eax, WORD PTR b$[rsp]
  00058	85 c0		 test	 eax, eax
  0005a	7c 0a		 jl	 SHORT $LN7@stbi__mul2
  0005c	c7 44 24 24 01
	00 00 00	 mov	 DWORD PTR tv72[rsp], 1
  00064	eb 08		 jmp	 SHORT $LN8@stbi__mul2
$LN7@stbi__mul2:
  00066	c7 44 24 24 00
	00 00 00	 mov	 DWORD PTR tv72[rsp], 0
$LN8@stbi__mul2:
  0006e	8b 44 24 24	 mov	 eax, DWORD PTR tv72[rsp]
  00072	39 44 24 20	 cmp	 DWORD PTR tv73[rsp], eax
  00076	75 36		 jne	 SHORT $LN4@stbi__mul2
  00078	0f bf 44 24 50	 movsx	 eax, WORD PTR a$[rsp]
  0007d	89 44 24 28	 mov	 DWORD PTR tv75[rsp], eax
  00081	0f bf 4c 24 58	 movsx	 ecx, WORD PTR b$[rsp]
  00086	b8 ff 7f 00 00	 mov	 eax, 32767		; 00007fffH
  0008b	99		 cdq
  0008c	f7 f9		 idiv	 ecx
  0008e	8b 4c 24 28	 mov	 ecx, DWORD PTR tv75[rsp]
  00092	3b c8		 cmp	 ecx, eax
  00094	7f 0a		 jg	 SHORT $LN11@stbi__mul2
  00096	c7 44 24 2c 01
	00 00 00	 mov	 DWORD PTR tv79[rsp], 1
  0009e	eb 08		 jmp	 SHORT $LN12@stbi__mul2
$LN11@stbi__mul2:
  000a0	c7 44 24 2c 00
	00 00 00	 mov	 DWORD PTR tv79[rsp], 0
$LN12@stbi__mul2:
  000a8	8b 44 24 2c	 mov	 eax, DWORD PTR tv79[rsp]
  000ac	eb 73		 jmp	 SHORT $LN1@stbi__mul2
$LN4@stbi__mul2:

; 1080 :    if (b < 0) return a <= SHRT_MIN / b; // same as a * b >= SHRT_MIN

  000ae	0f bf 44 24 58	 movsx	 eax, WORD PTR b$[rsp]
  000b3	85 c0		 test	 eax, eax
  000b5	7d 36		 jge	 SHORT $LN5@stbi__mul2
  000b7	0f bf 44 24 50	 movsx	 eax, WORD PTR a$[rsp]
  000bc	89 44 24 30	 mov	 DWORD PTR tv82[rsp], eax
  000c0	0f bf 4c 24 58	 movsx	 ecx, WORD PTR b$[rsp]
  000c5	b8 00 80 ff ff	 mov	 eax, -32768		; ffffffffffff8000H
  000ca	99		 cdq
  000cb	f7 f9		 idiv	 ecx
  000cd	8b 4c 24 30	 mov	 ecx, DWORD PTR tv82[rsp]
  000d1	3b c8		 cmp	 ecx, eax
  000d3	7f 0a		 jg	 SHORT $LN13@stbi__mul2
  000d5	c7 44 24 34 01
	00 00 00	 mov	 DWORD PTR tv86[rsp], 1
  000dd	eb 08		 jmp	 SHORT $LN14@stbi__mul2
$LN13@stbi__mul2:
  000df	c7 44 24 34 00
	00 00 00	 mov	 DWORD PTR tv86[rsp], 0
$LN14@stbi__mul2:
  000e7	8b 44 24 34	 mov	 eax, DWORD PTR tv86[rsp]
  000eb	eb 34		 jmp	 SHORT $LN1@stbi__mul2
$LN5@stbi__mul2:

; 1081 :    return a >= SHRT_MIN / b;

  000ed	0f bf 44 24 50	 movsx	 eax, WORD PTR a$[rsp]
  000f2	89 44 24 38	 mov	 DWORD PTR tv87[rsp], eax
  000f6	0f bf 4c 24 58	 movsx	 ecx, WORD PTR b$[rsp]
  000fb	b8 00 80 ff ff	 mov	 eax, -32768		; ffffffffffff8000H
  00100	99		 cdq
  00101	f7 f9		 idiv	 ecx
  00103	8b 4c 24 38	 mov	 ecx, DWORD PTR tv87[rsp]
  00107	3b c8		 cmp	 ecx, eax
  00109	7c 0a		 jl	 SHORT $LN15@stbi__mul2
  0010b	c7 44 24 3c 01
	00 00 00	 mov	 DWORD PTR tv91[rsp], 1
  00113	eb 08		 jmp	 SHORT $LN16@stbi__mul2
$LN15@stbi__mul2:
  00115	c7 44 24 3c 00
	00 00 00	 mov	 DWORD PTR tv91[rsp], 0
$LN16@stbi__mul2:
  0011d	8b 44 24 3c	 mov	 eax, DWORD PTR tv91[rsp]
$LN1@stbi__mul2:

; 1082 : }

  00121	48 83 c4 40	 add	 rsp, 64			; 00000040H
  00125	5f		 pop	 rdi
  00126	c3		 ret	 0
stbi__mul2shorts_valid ENDP
_TEXT	ENDS
; Function compile flags: /Odtp /RTCsu
; File C:\Users\drago\source\repos\cGame - less comments\cGame\includes\stb-master\stb_image.h
_TEXT	SEGMENT
retval_from_stbi_load$ = 48
stbi_image_free PROC

; 1100 : {

$LN3:
  00000	48 89 4c 24 08	 mov	 QWORD PTR [rsp+8], rcx
  00005	57		 push	 rdi
  00006	48 83 ec 20	 sub	 rsp, 32			; 00000020H
  0000a	48 8d 0d 00 00
	00 00		 lea	 rcx, OFFSET FLAT:__D1DC2946_EntityManager@h
  00011	e8 00 00 00 00	 call	 __CheckForDebuggerJustMyCode

; 1101 :    STBI_FREE(retval_from_stbi_load);

  00016	48 8b 4c 24 30	 mov	 rcx, QWORD PTR retval_from_stbi_load$[rsp]
  0001b	ff 15 00 00 00
	00		 call	 QWORD PTR __imp_free
  00021	90		 npad	 1

; 1102 : }

  00022	48 83 c4 20	 add	 rsp, 32			; 00000020H
  00026	5f		 pop	 rdi
  00027	c3		 ret	 0
stbi_image_free ENDP
_TEXT	ENDS
; Function compile flags: /Odtp /RTCsu
; File C:\Users\drago\source\repos\cGame - less comments\cGame\includes\stb-master\stb_image.h
_TEXT	SEGMENT
flag_true_if_should_flip$ = 48
stbi_set_flip_vertically_on_load PROC

; 1115 : {

$LN3:
  00000	89 4c 24 08	 mov	 DWORD PTR [rsp+8], ecx
  00004	57		 push	 rdi
  00005	48 83 ec 20	 sub	 rsp, 32			; 00000020H
  00009	48 8d 0d 00 00
	00 00		 lea	 rcx, OFFSET FLAT:__D1DC2946_EntityManager@h
  00010	e8 00 00 00 00	 call	 __CheckForDebuggerJustMyCode

; 1116 :    stbi__vertically_flip_on_load_global = flag_true_if_should_flip;

  00015	8b 44 24 30	 mov	 eax, DWORD PTR flag_true_if_should_flip$[rsp]
  00019	89 05 00 00 00
	00		 mov	 DWORD PTR stbi__vertically_flip_on_load_global, eax

; 1117 : }

  0001f	48 83 c4 20	 add	 rsp, 32			; 00000020H
  00023	5f		 pop	 rdi
  00024	c3		 ret	 0
stbi_set_flip_vertically_on_load ENDP
_TEXT	ENDS
; Function compile flags: /Odtp /RTCsu
; File C:\Users\drago\source\repos\cGame - less comments\cGame\includes\stb-master\stb_image.h
_TEXT	SEGMENT
flag_true_if_should_flip$ = 48
stbi_set_flip_vertically_on_load_thread PROC

; 1125 : {

$LN3:
  00000	89 4c 24 08	 mov	 DWORD PTR [rsp+8], ecx
  00004	57		 push	 rdi
  00005	48 83 ec 20	 sub	 rsp, 32			; 00000020H
  00009	48 8d 0d 00 00
	00 00		 lea	 rcx, OFFSET FLAT:__D1DC2946_EntityManager@h
  00010	e8 00 00 00 00	 call	 __CheckForDebuggerJustMyCode

; 1126 :    stbi__vertically_flip_on_load_local = flag_true_if_should_flip;

  00015	b8 00 00 00 00	 mov	 eax, OFFSET FLAT:stbi__vertically_flip_on_load_local
  0001a	8b c0		 mov	 eax, eax
  0001c	65 48 8b 0c 25
	58 00 00 00	 mov	 rcx, QWORD PTR gs:88
  00025	48 8b 09	 mov	 rcx, QWORD PTR [rcx]
  00028	8b 54 24 30	 mov	 edx, DWORD PTR flag_true_if_should_flip$[rsp]
  0002c	89 14 08	 mov	 DWORD PTR [rax+rcx], edx

; 1127 :    stbi__vertically_flip_on_load_set = 1;

  0002f	b8 00 00 00 00	 mov	 eax, OFFSET FLAT:stbi__vertically_flip_on_load_set
  00034	8b c0		 mov	 eax, eax
  00036	65 48 8b 0c 25
	58 00 00 00	 mov	 rcx, QWORD PTR gs:88
  0003f	48 8b 09	 mov	 rcx, QWORD PTR [rcx]
  00042	c7 04 08 01 00
	00 00		 mov	 DWORD PTR [rax+rcx], 1

; 1128 : }

  00049	48 83 c4 20	 add	 rsp, 32			; 00000020H
  0004d	5f		 pop	 rdi
  0004e	c3		 ret	 0
stbi_set_flip_vertically_on_load_thread ENDP
_TEXT	ENDS
; Function compile flags: /Odtp /RTCsu
; File C:\Users\drago\source\repos\cGame - less comments\cGame\includes\stb-master\stb_image.h
_TEXT	SEGMENT
hdr$1 = 64
tv186 = 72
tv204 = 80
s$ = 112
x$ = 120
y$ = 128
comp$ = 136
req_comp$ = 144
ri$ = 152
bpc$ = 160
stbi__load_main PROC

; 1136 : {

  00000	4c 89 4c 24 20	 mov	 QWORD PTR [rsp+32], r9
  00005	4c 89 44 24 18	 mov	 QWORD PTR [rsp+24], r8
  0000a	48 89 54 24 10	 mov	 QWORD PTR [rsp+16], rdx
  0000f	48 89 4c 24 08	 mov	 QWORD PTR [rsp+8], rcx
  00014	57		 push	 rdi
  00015	48 83 ec 60	 sub	 rsp, 96			; 00000060H
  00019	48 8d 0d 00 00
	00 00		 lea	 rcx, OFFSET FLAT:__D1DC2946_EntityManager@h
  00020	e8 00 00 00 00	 call	 __CheckForDebuggerJustMyCode

; 1137 :    memset(ri, 0, sizeof(*ri)); // make sure it's initialized if we add new fields

  00025	48 8b bc 24 98
	00 00 00	 mov	 rdi, QWORD PTR ri$[rsp]
  0002d	33 c0		 xor	 eax, eax
  0002f	b9 0c 00 00 00	 mov	 ecx, 12
  00034	f3 aa		 rep stosb

; 1138 :    ri->bits_per_channel = 8; // default is 8 so most paths don't have to be changed

  00036	48 8b 84 24 98
	00 00 00	 mov	 rax, QWORD PTR ri$[rsp]
  0003e	c7 00 08 00 00
	00		 mov	 DWORD PTR [rax], 8

; 1139 :    ri->channel_order = STBI_ORDER_RGB; // all current input & output are this, but this is here so we can add BGR order

  00044	48 8b 84 24 98
	00 00 00	 mov	 rax, QWORD PTR ri$[rsp]
  0004c	c7 40 08 00 00
	00 00		 mov	 DWORD PTR [rax+8], 0

; 1140 :    ri->num_channels = 0;

  00053	48 8b 84 24 98
	00 00 00	 mov	 rax, QWORD PTR ri$[rsp]
  0005b	c7 40 04 00 00
	00 00		 mov	 DWORD PTR [rax+4], 0

; 1141 : 
; 1142 :    // test the formats with a very explicit header first (at least a FOURCC
; 1143 :    // or distinctive magic number first)
; 1144 :    #ifndef STBI_NO_PNG
; 1145 :    if (stbi__png_test(s))  return stbi__png_load(s,x,y,comp,req_comp, ri);

  00062	48 8b 4c 24 70	 mov	 rcx, QWORD PTR s$[rsp]
  00067	e8 00 00 00 00	 call	 stbi__png_test
  0006c	85 c0		 test	 eax, eax
  0006e	74 3c		 je	 SHORT $LN2@stbi__load
  00070	48 8b 84 24 98
	00 00 00	 mov	 rax, QWORD PTR ri$[rsp]
  00078	48 89 44 24 28	 mov	 QWORD PTR [rsp+40], rax
  0007d	8b 84 24 90 00
	00 00		 mov	 eax, DWORD PTR req_comp$[rsp]
  00084	89 44 24 20	 mov	 DWORD PTR [rsp+32], eax
  00088	4c 8b 8c 24 88
	00 00 00	 mov	 r9, QWORD PTR comp$[rsp]
  00090	4c 8b 84 24 80
	00 00 00	 mov	 r8, QWORD PTR y$[rsp]
  00098	48 8b 54 24 78	 mov	 rdx, QWORD PTR x$[rsp]
  0009d	48 8b 4c 24 70	 mov	 rcx, QWORD PTR s$[rsp]
  000a2	e8 00 00 00 00	 call	 stbi__png_load
  000a7	e9 cd 02 00 00	 jmp	 $LN1@stbi__load
$LN2@stbi__load:

; 1146 :    #endif
; 1147 :    #ifndef STBI_NO_BMP
; 1148 :    if (stbi__bmp_test(s))  return stbi__bmp_load(s,x,y,comp,req_comp, ri);

  000ac	48 8b 4c 24 70	 mov	 rcx, QWORD PTR s$[rsp]
  000b1	e8 00 00 00 00	 call	 stbi__bmp_test
  000b6	85 c0		 test	 eax, eax
  000b8	74 3c		 je	 SHORT $LN3@stbi__load
  000ba	48 8b 84 24 98
	00 00 00	 mov	 rax, QWORD PTR ri$[rsp]
  000c2	48 89 44 24 28	 mov	 QWORD PTR [rsp+40], rax
  000c7	8b 84 24 90 00
	00 00		 mov	 eax, DWORD PTR req_comp$[rsp]
  000ce	89 44 24 20	 mov	 DWORD PTR [rsp+32], eax
  000d2	4c 8b 8c 24 88
	00 00 00	 mov	 r9, QWORD PTR comp$[rsp]
  000da	4c 8b 84 24 80
	00 00 00	 mov	 r8, QWORD PTR y$[rsp]
  000e2	48 8b 54 24 78	 mov	 rdx, QWORD PTR x$[rsp]
  000e7	48 8b 4c 24 70	 mov	 rcx, QWORD PTR s$[rsp]
  000ec	e8 00 00 00 00	 call	 stbi__bmp_load
  000f1	e9 83 02 00 00	 jmp	 $LN1@stbi__load
$LN3@stbi__load:

; 1149 :    #endif
; 1150 :    #ifndef STBI_NO_GIF
; 1151 :    if (stbi__gif_test(s))  return stbi__gif_load(s,x,y,comp,req_comp, ri);

  000f6	48 8b 4c 24 70	 mov	 rcx, QWORD PTR s$[rsp]
  000fb	e8 00 00 00 00	 call	 stbi__gif_test
  00100	85 c0		 test	 eax, eax
  00102	74 3c		 je	 SHORT $LN4@stbi__load
  00104	48 8b 84 24 98
	00 00 00	 mov	 rax, QWORD PTR ri$[rsp]
  0010c	48 89 44 24 28	 mov	 QWORD PTR [rsp+40], rax
  00111	8b 84 24 90 00
	00 00		 mov	 eax, DWORD PTR req_comp$[rsp]
  00118	89 44 24 20	 mov	 DWORD PTR [rsp+32], eax
  0011c	4c 8b 8c 24 88
	00 00 00	 mov	 r9, QWORD PTR comp$[rsp]
  00124	4c 8b 84 24 80
	00 00 00	 mov	 r8, QWORD PTR y$[rsp]
  0012c	48 8b 54 24 78	 mov	 rdx, QWORD PTR x$[rsp]
  00131	48 8b 4c 24 70	 mov	 rcx, QWORD PTR s$[rsp]
  00136	e8 00 00 00 00	 call	 stbi__gif_load
  0013b	e9 39 02 00 00	 jmp	 $LN1@stbi__load
$LN4@stbi__load:

; 1152 :    #endif
; 1153 :    #ifndef STBI_NO_PSD
; 1154 :    if (stbi__psd_test(s))  return stbi__psd_load(s,x,y,comp,req_comp, ri, bpc);

  00140	48 8b 4c 24 70	 mov	 rcx, QWORD PTR s$[rsp]
  00145	e8 00 00 00 00	 call	 stbi__psd_test
  0014a	85 c0		 test	 eax, eax
  0014c	74 47		 je	 SHORT $LN5@stbi__load
  0014e	8b 84 24 a0 00
	00 00		 mov	 eax, DWORD PTR bpc$[rsp]
  00155	89 44 24 30	 mov	 DWORD PTR [rsp+48], eax
  00159	48 8b 84 24 98
	00 00 00	 mov	 rax, QWORD PTR ri$[rsp]
  00161	48 89 44 24 28	 mov	 QWORD PTR [rsp+40], rax
  00166	8b 84 24 90 00
	00 00		 mov	 eax, DWORD PTR req_comp$[rsp]
  0016d	89 44 24 20	 mov	 DWORD PTR [rsp+32], eax
  00171	4c 8b 8c 24 88
	00 00 00	 mov	 r9, QWORD PTR comp$[rsp]
  00179	4c 8b 84 24 80
	00 00 00	 mov	 r8, QWORD PTR y$[rsp]
  00181	48 8b 54 24 78	 mov	 rdx, QWORD PTR x$[rsp]
  00186	48 8b 4c 24 70	 mov	 rcx, QWORD PTR s$[rsp]
  0018b	e8 00 00 00 00	 call	 stbi__psd_load
  00190	e9 e4 01 00 00	 jmp	 $LN1@stbi__load
$LN5@stbi__load:

; 1155 :    #else
; 1156 :    STBI_NOTUSED(bpc);
; 1157 :    #endif
; 1158 :    #ifndef STBI_NO_PIC
; 1159 :    if (stbi__pic_test(s))  return stbi__pic_load(s,x,y,comp,req_comp, ri);

  00195	48 8b 4c 24 70	 mov	 rcx, QWORD PTR s$[rsp]
  0019a	e8 00 00 00 00	 call	 stbi__pic_test
  0019f	85 c0		 test	 eax, eax
  001a1	74 3c		 je	 SHORT $LN6@stbi__load
  001a3	48 8b 84 24 98
	00 00 00	 mov	 rax, QWORD PTR ri$[rsp]
  001ab	48 89 44 24 28	 mov	 QWORD PTR [rsp+40], rax
  001b0	8b 84 24 90 00
	00 00		 mov	 eax, DWORD PTR req_comp$[rsp]
  001b7	89 44 24 20	 mov	 DWORD PTR [rsp+32], eax
  001bb	4c 8b 8c 24 88
	00 00 00	 mov	 r9, QWORD PTR comp$[rsp]
  001c3	4c 8b 84 24 80
	00 00 00	 mov	 r8, QWORD PTR y$[rsp]
  001cb	48 8b 54 24 78	 mov	 rdx, QWORD PTR x$[rsp]
  001d0	48 8b 4c 24 70	 mov	 rcx, QWORD PTR s$[rsp]
  001d5	e8 00 00 00 00	 call	 stbi__pic_load
  001da	e9 9a 01 00 00	 jmp	 $LN1@stbi__load
$LN6@stbi__load:

; 1160 :    #endif
; 1161 : 
; 1162 :    // then the formats that can end up attempting to load with just 1 or 2
; 1163 :    // bytes matching expectations; these are prone to false positives, so
; 1164 :    // try them later
; 1165 :    #ifndef STBI_NO_JPEG
; 1166 :    if (stbi__jpeg_test(s)) return stbi__jpeg_load(s,x,y,comp,req_comp, ri);

  001df	48 8b 4c 24 70	 mov	 rcx, QWORD PTR s$[rsp]
  001e4	e8 00 00 00 00	 call	 stbi__jpeg_test
  001e9	85 c0		 test	 eax, eax
  001eb	74 3c		 je	 SHORT $LN7@stbi__load
  001ed	48 8b 84 24 98
	00 00 00	 mov	 rax, QWORD PTR ri$[rsp]
  001f5	48 89 44 24 28	 mov	 QWORD PTR [rsp+40], rax
  001fa	8b 84 24 90 00
	00 00		 mov	 eax, DWORD PTR req_comp$[rsp]
  00201	89 44 24 20	 mov	 DWORD PTR [rsp+32], eax
  00205	4c 8b 8c 24 88
	00 00 00	 mov	 r9, QWORD PTR comp$[rsp]
  0020d	4c 8b 84 24 80
	00 00 00	 mov	 r8, QWORD PTR y$[rsp]
  00215	48 8b 54 24 78	 mov	 rdx, QWORD PTR x$[rsp]
  0021a	48 8b 4c 24 70	 mov	 rcx, QWORD PTR s$[rsp]
  0021f	e8 00 00 00 00	 call	 stbi__jpeg_load
  00224	e9 50 01 00 00	 jmp	 $LN1@stbi__load
$LN7@stbi__load:

; 1167 :    #endif
; 1168 :    #ifndef STBI_NO_PNM
; 1169 :    if (stbi__pnm_test(s))  return stbi__pnm_load(s,x,y,comp,req_comp, ri);

  00229	48 8b 4c 24 70	 mov	 rcx, QWORD PTR s$[rsp]
  0022e	e8 00 00 00 00	 call	 stbi__pnm_test
  00233	85 c0		 test	 eax, eax
  00235	74 3c		 je	 SHORT $LN8@stbi__load
  00237	48 8b 84 24 98
	00 00 00	 mov	 rax, QWORD PTR ri$[rsp]
  0023f	48 89 44 24 28	 mov	 QWORD PTR [rsp+40], rax
  00244	8b 84 24 90 00
	00 00		 mov	 eax, DWORD PTR req_comp$[rsp]
  0024b	89 44 24 20	 mov	 DWORD PTR [rsp+32], eax
  0024f	4c 8b 8c 24 88
	00 00 00	 mov	 r9, QWORD PTR comp$[rsp]
  00257	4c 8b 84 24 80
	00 00 00	 mov	 r8, QWORD PTR y$[rsp]
  0025f	48 8b 54 24 78	 mov	 rdx, QWORD PTR x$[rsp]
  00264	48 8b 4c 24 70	 mov	 rcx, QWORD PTR s$[rsp]
  00269	e8 00 00 00 00	 call	 stbi__pnm_load
  0026e	e9 06 01 00 00	 jmp	 $LN1@stbi__load
$LN8@stbi__load:

; 1170 :    #endif
; 1171 : 
; 1172 :    #ifndef STBI_NO_HDR
; 1173 :    if (stbi__hdr_test(s)) {

  00273	48 8b 4c 24 70	 mov	 rcx, QWORD PTR s$[rsp]
  00278	e8 00 00 00 00	 call	 stbi__hdr_test
  0027d	85 c0		 test	 eax, eax
  0027f	0f 84 84 00 00
	00		 je	 $LN9@stbi__load

; 1174 :       float *hdr = stbi__hdr_load(s, x,y,comp,req_comp, ri);

  00285	48 8b 84 24 98
	00 00 00	 mov	 rax, QWORD PTR ri$[rsp]
  0028d	48 89 44 24 28	 mov	 QWORD PTR [rsp+40], rax
  00292	8b 84 24 90 00
	00 00		 mov	 eax, DWORD PTR req_comp$[rsp]
  00299	89 44 24 20	 mov	 DWORD PTR [rsp+32], eax
  0029d	4c 8b 8c 24 88
	00 00 00	 mov	 r9, QWORD PTR comp$[rsp]
  002a5	4c 8b 84 24 80
	00 00 00	 mov	 r8, QWORD PTR y$[rsp]
  002ad	48 8b 54 24 78	 mov	 rdx, QWORD PTR x$[rsp]
  002b2	48 8b 4c 24 70	 mov	 rcx, QWORD PTR s$[rsp]
  002b7	e8 00 00 00 00	 call	 stbi__hdr_load
  002bc	48 89 44 24 40	 mov	 QWORD PTR hdr$1[rsp], rax

; 1175 :       return stbi__hdr_to_ldr(hdr, *x, *y, req_comp ? req_comp : *comp);

  002c1	83 bc 24 90 00
	00 00 00	 cmp	 DWORD PTR req_comp$[rsp], 0
  002c9	74 0d		 je	 SHORT $LN12@stbi__load
  002cb	8b 84 24 90 00
	00 00		 mov	 eax, DWORD PTR req_comp$[rsp]
  002d2	89 44 24 48	 mov	 DWORD PTR tv186[rsp], eax
  002d6	eb 0e		 jmp	 SHORT $LN13@stbi__load
$LN12@stbi__load:
  002d8	48 8b 84 24 88
	00 00 00	 mov	 rax, QWORD PTR comp$[rsp]
  002e0	8b 00		 mov	 eax, DWORD PTR [rax]
  002e2	89 44 24 48	 mov	 DWORD PTR tv186[rsp], eax
$LN13@stbi__load:
  002e6	44 8b 4c 24 48	 mov	 r9d, DWORD PTR tv186[rsp]
  002eb	48 8b 84 24 80
	00 00 00	 mov	 rax, QWORD PTR y$[rsp]
  002f3	44 8b 00	 mov	 r8d, DWORD PTR [rax]
  002f6	48 8b 44 24 78	 mov	 rax, QWORD PTR x$[rsp]
  002fb	8b 10		 mov	 edx, DWORD PTR [rax]
  002fd	48 8b 4c 24 40	 mov	 rcx, QWORD PTR hdr$1[rsp]
  00302	e8 00 00 00 00	 call	 stbi__hdr_to_ldr
  00307	eb 70		 jmp	 SHORT $LN1@stbi__load
$LN9@stbi__load:

; 1176 :    }
; 1177 :    #endif
; 1178 : 
; 1179 :    #ifndef STBI_NO_TGA
; 1180 :    // test tga last because it's a crappy test!
; 1181 :    if (stbi__tga_test(s))

  00309	48 8b 4c 24 70	 mov	 rcx, QWORD PTR s$[rsp]
  0030e	e8 00 00 00 00	 call	 stbi__tga_test
  00313	85 c0		 test	 eax, eax
  00315	74 39		 je	 SHORT $LN10@stbi__load

; 1182 :       return stbi__tga_load(s,x,y,comp,req_comp, ri);

  00317	48 8b 84 24 98
	00 00 00	 mov	 rax, QWORD PTR ri$[rsp]
  0031f	48 89 44 24 28	 mov	 QWORD PTR [rsp+40], rax
  00324	8b 84 24 90 00
	00 00		 mov	 eax, DWORD PTR req_comp$[rsp]
  0032b	89 44 24 20	 mov	 DWORD PTR [rsp+32], eax
  0032f	4c 8b 8c 24 88
	00 00 00	 mov	 r9, QWORD PTR comp$[rsp]
  00337	4c 8b 84 24 80
	00 00 00	 mov	 r8, QWORD PTR y$[rsp]
  0033f	48 8b 54 24 78	 mov	 rdx, QWORD PTR x$[rsp]
  00344	48 8b 4c 24 70	 mov	 rcx, QWORD PTR s$[rsp]
  00349	e8 00 00 00 00	 call	 stbi__tga_load
  0034e	eb 29		 jmp	 SHORT $LN1@stbi__load
$LN10@stbi__load:

; 1183 :    #endif
; 1184 : 
; 1185 :    return stbi__errpuc("unknown image type", "Image not of any known type, or corrupt");

  00350	48 8d 0d 00 00
	00 00		 lea	 rcx, OFFSET FLAT:??_C@_0BD@CBEDEJPH@unknown?5image?5type@
  00357	e8 00 00 00 00	 call	 stbi__err
  0035c	85 c0		 test	 eax, eax
  0035e	74 0b		 je	 SHORT $LN14@stbi__load
  00360	48 c7 44 24 50
	00 00 00 00	 mov	 QWORD PTR tv204[rsp], 0
  00369	eb 09		 jmp	 SHORT $LN15@stbi__load
$LN14@stbi__load:
  0036b	48 c7 44 24 50
	00 00 00 00	 mov	 QWORD PTR tv204[rsp], 0
$LN15@stbi__load:
  00374	48 8b 44 24 50	 mov	 rax, QWORD PTR tv204[rsp]
$LN1@stbi__load:

; 1186 : }

  00379	48 83 c4 60	 add	 rsp, 96			; 00000060H
  0037d	5f		 pop	 rdi
  0037e	c3		 ret	 0
stbi__load_main ENDP
_TEXT	ENDS
; Function compile flags: /Odtp /RTCsu
; File C:\Users\drago\source\repos\cGame - less comments\cGame\includes\stb-master\stb_image.h
_TEXT	SEGMENT
i$ = 32
img_len$ = 36
reduced$ = 40
tv73 = 48
orig$ = 80
w$ = 88
h$ = 96
channels$ = 104
stbi__convert_16_to_8 PROC

; 1189 : {

  00000	44 89 4c 24 20	 mov	 DWORD PTR [rsp+32], r9d
  00005	44 89 44 24 18	 mov	 DWORD PTR [rsp+24], r8d
  0000a	89 54 24 10	 mov	 DWORD PTR [rsp+16], edx
  0000e	48 89 4c 24 08	 mov	 QWORD PTR [rsp+8], rcx
  00013	57		 push	 rdi
  00014	48 83 ec 40	 sub	 rsp, 64			; 00000040H
  00018	48 8d 0d 00 00
	00 00		 lea	 rcx, OFFSET FLAT:__D1DC2946_EntityManager@h
  0001f	e8 00 00 00 00	 call	 __CheckForDebuggerJustMyCode

; 1190 :    int i;
; 1191 :    int img_len = w * h * channels;

  00024	8b 44 24 58	 mov	 eax, DWORD PTR w$[rsp]
  00028	0f af 44 24 60	 imul	 eax, DWORD PTR h$[rsp]
  0002d	0f af 44 24 68	 imul	 eax, DWORD PTR channels$[rsp]
  00032	89 44 24 24	 mov	 DWORD PTR img_len$[rsp], eax

; 1192 :    stbi_uc *reduced;
; 1193 : 
; 1194 :    reduced = (stbi_uc *) stbi__malloc(img_len);

  00036	48 63 44 24 24	 movsxd	 rax, DWORD PTR img_len$[rsp]
  0003b	48 8b c8	 mov	 rcx, rax
  0003e	e8 00 00 00 00	 call	 stbi__malloc
  00043	48 89 44 24 28	 mov	 QWORD PTR reduced$[rsp], rax

; 1195 :    if (reduced == NULL) return stbi__errpuc("outofmem", "Out of memory");

  00048	48 83 7c 24 28
	00		 cmp	 QWORD PTR reduced$[rsp], 0
  0004e	75 2b		 jne	 SHORT $LN5@stbi__conv
  00050	48 8d 0d 00 00
	00 00		 lea	 rcx, OFFSET FLAT:??_C@_08NOGIMCHF@outofmem@
  00057	e8 00 00 00 00	 call	 stbi__err
  0005c	85 c0		 test	 eax, eax
  0005e	74 0b		 je	 SHORT $LN7@stbi__conv
  00060	48 c7 44 24 30
	00 00 00 00	 mov	 QWORD PTR tv73[rsp], 0
  00069	eb 09		 jmp	 SHORT $LN8@stbi__conv
$LN7@stbi__conv:
  0006b	48 c7 44 24 30
	00 00 00 00	 mov	 QWORD PTR tv73[rsp], 0
$LN8@stbi__conv:
  00074	48 8b 44 24 30	 mov	 rax, QWORD PTR tv73[rsp]
  00079	eb 53		 jmp	 SHORT $LN1@stbi__conv
$LN5@stbi__conv:

; 1196 : 
; 1197 :    for (i = 0; i < img_len; ++i)

  0007b	c7 44 24 20 00
	00 00 00	 mov	 DWORD PTR i$[rsp], 0
  00083	eb 0a		 jmp	 SHORT $LN4@stbi__conv
$LN2@stbi__conv:
  00085	8b 44 24 20	 mov	 eax, DWORD PTR i$[rsp]
  00089	ff c0		 inc	 eax
  0008b	89 44 24 20	 mov	 DWORD PTR i$[rsp], eax
$LN4@stbi__conv:
  0008f	8b 44 24 24	 mov	 eax, DWORD PTR img_len$[rsp]
  00093	39 44 24 20	 cmp	 DWORD PTR i$[rsp], eax
  00097	7d 25		 jge	 SHORT $LN3@stbi__conv

; 1198 :       reduced[i] = (stbi_uc)((orig[i] >> 8) & 0xFF); // top half of each byte is sufficient approx of 16->8 bit scaling

  00099	48 63 44 24 20	 movsxd	 rax, DWORD PTR i$[rsp]
  0009e	48 8b 4c 24 50	 mov	 rcx, QWORD PTR orig$[rsp]
  000a3	0f b7 04 41	 movzx	 eax, WORD PTR [rcx+rax*2]
  000a7	c1 f8 08	 sar	 eax, 8
  000aa	25 ff 00 00 00	 and	 eax, 255		; 000000ffH
  000af	48 63 4c 24 20	 movsxd	 rcx, DWORD PTR i$[rsp]
  000b4	48 8b 54 24 28	 mov	 rdx, QWORD PTR reduced$[rsp]
  000b9	88 04 0a	 mov	 BYTE PTR [rdx+rcx], al
  000bc	eb c7		 jmp	 SHORT $LN2@stbi__conv
$LN3@stbi__conv:

; 1199 : 
; 1200 :    STBI_FREE(orig);

  000be	48 8b 4c 24 50	 mov	 rcx, QWORD PTR orig$[rsp]
  000c3	ff 15 00 00 00
	00		 call	 QWORD PTR __imp_free

; 1201 :    return reduced;

  000c9	48 8b 44 24 28	 mov	 rax, QWORD PTR reduced$[rsp]
$LN1@stbi__conv:

; 1202 : }

  000ce	48 83 c4 40	 add	 rsp, 64			; 00000040H
  000d2	5f		 pop	 rdi
  000d3	c3		 ret	 0
stbi__convert_16_to_8 ENDP
_TEXT	ENDS
; Function compile flags: /Odtp /RTCsu
; File C:\Users\drago\source\repos\cGame - less comments\cGame\includes\stb-master\stb_image.h
_TEXT	SEGMENT
i$ = 32
img_len$ = 36
enlarged$ = 40
tv74 = 48
orig$ = 80
w$ = 88
h$ = 96
channels$ = 104
stbi__convert_8_to_16 PROC

; 1205 : {

  00000	44 89 4c 24 20	 mov	 DWORD PTR [rsp+32], r9d
  00005	44 89 44 24 18	 mov	 DWORD PTR [rsp+24], r8d
  0000a	89 54 24 10	 mov	 DWORD PTR [rsp+16], edx
  0000e	48 89 4c 24 08	 mov	 QWORD PTR [rsp+8], rcx
  00013	57		 push	 rdi
  00014	48 83 ec 40	 sub	 rsp, 64			; 00000040H
  00018	48 8d 0d 00 00
	00 00		 lea	 rcx, OFFSET FLAT:__D1DC2946_EntityManager@h
  0001f	e8 00 00 00 00	 call	 __CheckForDebuggerJustMyCode

; 1206 :    int i;
; 1207 :    int img_len = w * h * channels;

  00024	8b 44 24 58	 mov	 eax, DWORD PTR w$[rsp]
  00028	0f af 44 24 60	 imul	 eax, DWORD PTR h$[rsp]
  0002d	0f af 44 24 68	 imul	 eax, DWORD PTR channels$[rsp]
  00032	89 44 24 24	 mov	 DWORD PTR img_len$[rsp], eax

; 1208 :    stbi__uint16 *enlarged;
; 1209 : 
; 1210 :    enlarged = (stbi__uint16 *) stbi__malloc(img_len*2);

  00036	8b 44 24 24	 mov	 eax, DWORD PTR img_len$[rsp]
  0003a	d1 e0		 shl	 eax, 1
  0003c	48 98		 cdqe
  0003e	48 8b c8	 mov	 rcx, rax
  00041	e8 00 00 00 00	 call	 stbi__malloc
  00046	48 89 44 24 28	 mov	 QWORD PTR enlarged$[rsp], rax

; 1211 :    if (enlarged == NULL) return (stbi__uint16 *) stbi__errpuc("outofmem", "Out of memory");

  0004b	48 83 7c 24 28
	00		 cmp	 QWORD PTR enlarged$[rsp], 0
  00051	75 2b		 jne	 SHORT $LN5@stbi__conv
  00053	48 8d 0d 00 00
	00 00		 lea	 rcx, OFFSET FLAT:??_C@_08NOGIMCHF@outofmem@
  0005a	e8 00 00 00 00	 call	 stbi__err
  0005f	85 c0		 test	 eax, eax
  00061	74 0b		 je	 SHORT $LN7@stbi__conv
  00063	48 c7 44 24 30
	00 00 00 00	 mov	 QWORD PTR tv74[rsp], 0
  0006c	eb 09		 jmp	 SHORT $LN8@stbi__conv
$LN7@stbi__conv:
  0006e	48 c7 44 24 30
	00 00 00 00	 mov	 QWORD PTR tv74[rsp], 0
$LN8@stbi__conv:
  00077	48 8b 44 24 30	 mov	 rax, QWORD PTR tv74[rsp]
  0007c	eb 5f		 jmp	 SHORT $LN1@stbi__conv
$LN5@stbi__conv:

; 1212 : 
; 1213 :    for (i = 0; i < img_len; ++i)

  0007e	c7 44 24 20 00
	00 00 00	 mov	 DWORD PTR i$[rsp], 0
  00086	eb 0a		 jmp	 SHORT $LN4@stbi__conv
$LN2@stbi__conv:
  00088	8b 44 24 20	 mov	 eax, DWORD PTR i$[rsp]
  0008c	ff c0		 inc	 eax
  0008e	89 44 24 20	 mov	 DWORD PTR i$[rsp], eax
$LN4@stbi__conv:
  00092	8b 44 24 24	 mov	 eax, DWORD PTR img_len$[rsp]
  00096	39 44 24 20	 cmp	 DWORD PTR i$[rsp], eax
  0009a	7d 31		 jge	 SHORT $LN3@stbi__conv

; 1214 :       enlarged[i] = (stbi__uint16)((orig[i] << 8) + orig[i]); // replicate to high and low byte, maps 0->0, 255->0xffff

  0009c	48 63 44 24 20	 movsxd	 rax, DWORD PTR i$[rsp]
  000a1	48 8b 4c 24 50	 mov	 rcx, QWORD PTR orig$[rsp]
  000a6	0f b6 04 01	 movzx	 eax, BYTE PTR [rcx+rax]
  000aa	c1 e0 08	 shl	 eax, 8
  000ad	48 63 4c 24 20	 movsxd	 rcx, DWORD PTR i$[rsp]
  000b2	48 8b 54 24 50	 mov	 rdx, QWORD PTR orig$[rsp]
  000b7	0f b6 0c 0a	 movzx	 ecx, BYTE PTR [rdx+rcx]
  000bb	03 c1		 add	 eax, ecx
  000bd	48 63 4c 24 20	 movsxd	 rcx, DWORD PTR i$[rsp]
  000c2	48 8b 54 24 28	 mov	 rdx, QWORD PTR enlarged$[rsp]
  000c7	66 89 04 4a	 mov	 WORD PTR [rdx+rcx*2], ax
  000cb	eb bb		 jmp	 SHORT $LN2@stbi__conv
$LN3@stbi__conv:

; 1215 : 
; 1216 :    STBI_FREE(orig);

  000cd	48 8b 4c 24 50	 mov	 rcx, QWORD PTR orig$[rsp]
  000d2	ff 15 00 00 00
	00		 call	 QWORD PTR __imp_free

; 1217 :    return enlarged;

  000d8	48 8b 44 24 28	 mov	 rax, QWORD PTR enlarged$[rsp]
$LN1@stbi__conv:

; 1218 : }

  000dd	48 83 c4 40	 add	 rsp, 64			; 00000040H
  000e1	5f		 pop	 rdi
  000e2	c3		 ret	 0
stbi__convert_8_to_16 ENDP
_TEXT	ENDS
; Function compile flags: /Odtp /RTCsu
; File C:\Users\drago\source\repos\cGame - less comments\cGame\includes\stb-master\stb_image.h
_TEXT	SEGMENT
row$ = 32
bytes_per_row$ = 40
temp$ = 64
bytes$ = 2120
row0$4 = 2128
row1$5 = 2136
bytes_left$6 = 2144
bytes_copy$7 = 2152
tv80 = 2168
__$ArrayPad$ = 2176
image$ = 2224
w$ = 2232
h$ = 2240
bytes_per_pixel$ = 2248
stbi__vertical_flip PROC

; 1221 : {

  00000	44 89 4c 24 20	 mov	 DWORD PTR [rsp+32], r9d
  00005	44 89 44 24 18	 mov	 DWORD PTR [rsp+24], r8d
  0000a	89 54 24 10	 mov	 DWORD PTR [rsp+16], edx
  0000e	48 89 4c 24 08	 mov	 QWORD PTR [rsp+8], rcx
  00013	56		 push	 rsi
  00014	57		 push	 rdi
  00015	48 81 ec 98 08
	00 00		 sub	 rsp, 2200		; 00000898H
  0001c	48 8d 7c 24 20	 lea	 rdi, QWORD PTR [rsp+32]
  00021	b9 1e 02 00 00	 mov	 ecx, 542		; 0000021eH
  00026	b8 cc cc cc cc	 mov	 eax, -858993460		; ccccccccH
  0002b	f3 ab		 rep stosd
  0002d	48 8b 8c 24 b0
	08 00 00	 mov	 rcx, QWORD PTR [rsp+2224]
  00035	48 8b 05 00 00
	00 00		 mov	 rax, QWORD PTR __security_cookie
  0003c	48 33 c4	 xor	 rax, rsp
  0003f	48 89 84 24 80
	08 00 00	 mov	 QWORD PTR __$ArrayPad$[rsp], rax
  00047	48 8d 0d 00 00
	00 00		 lea	 rcx, OFFSET FLAT:__D1DC2946_EntityManager@h
  0004e	e8 00 00 00 00	 call	 __CheckForDebuggerJustMyCode

; 1222 :    int row;
; 1223 :    size_t bytes_per_row = (size_t)w * bytes_per_pixel;

  00053	48 63 84 24 b8
	08 00 00	 movsxd	 rax, DWORD PTR w$[rsp]
  0005b	48 63 8c 24 c8
	08 00 00	 movsxd	 rcx, DWORD PTR bytes_per_pixel$[rsp]
  00063	48 0f af c1	 imul	 rax, rcx
  00067	48 89 44 24 28	 mov	 QWORD PTR bytes_per_row$[rsp], rax

; 1224 :    stbi_uc temp[2048];
; 1225 :    stbi_uc *bytes = (stbi_uc *)image;

  0006c	48 8b 84 24 b0
	08 00 00	 mov	 rax, QWORD PTR image$[rsp]
  00074	48 89 84 24 48
	08 00 00	 mov	 QWORD PTR bytes$[rsp], rax

; 1226 : 
; 1227 :    for (row = 0; row < (h>>1); row++) {

  0007c	c7 44 24 20 00
	00 00 00	 mov	 DWORD PTR row$[rsp], 0
  00084	eb 0a		 jmp	 SHORT $LN4@stbi__vert
$LN2@stbi__vert:
  00086	8b 44 24 20	 mov	 eax, DWORD PTR row$[rsp]
  0008a	ff c0		 inc	 eax
  0008c	89 44 24 20	 mov	 DWORD PTR row$[rsp], eax
$LN4@stbi__vert:
  00090	8b 84 24 c0 08
	00 00		 mov	 eax, DWORD PTR h$[rsp]
  00097	d1 f8		 sar	 eax, 1
  00099	39 44 24 20	 cmp	 DWORD PTR row$[rsp], eax
  0009d	0f 8d 5a 01 00
	00		 jge	 $LN3@stbi__vert

; 1228 :       stbi_uc *row0 = bytes + row*bytes_per_row;

  000a3	48 63 44 24 20	 movsxd	 rax, DWORD PTR row$[rsp]
  000a8	48 0f af 44 24
	28		 imul	 rax, QWORD PTR bytes_per_row$[rsp]
  000ae	48 8b 8c 24 48
	08 00 00	 mov	 rcx, QWORD PTR bytes$[rsp]
  000b6	48 03 c8	 add	 rcx, rax
  000b9	48 8b c1	 mov	 rax, rcx
  000bc	48 89 84 24 50
	08 00 00	 mov	 QWORD PTR row0$4[rsp], rax

; 1229 :       stbi_uc *row1 = bytes + (h - row - 1)*bytes_per_row;

  000c4	8b 44 24 20	 mov	 eax, DWORD PTR row$[rsp]
  000c8	8b 8c 24 c0 08
	00 00		 mov	 ecx, DWORD PTR h$[rsp]
  000cf	2b c8		 sub	 ecx, eax
  000d1	8b c1		 mov	 eax, ecx
  000d3	ff c8		 dec	 eax
  000d5	48 98		 cdqe
  000d7	48 0f af 44 24
	28		 imul	 rax, QWORD PTR bytes_per_row$[rsp]
  000dd	48 8b 8c 24 48
	08 00 00	 mov	 rcx, QWORD PTR bytes$[rsp]
  000e5	48 03 c8	 add	 rcx, rax
  000e8	48 8b c1	 mov	 rax, rcx
  000eb	48 89 84 24 58
	08 00 00	 mov	 QWORD PTR row1$5[rsp], rax

; 1230 :       // swap row0 with row1
; 1231 :       size_t bytes_left = bytes_per_row;

  000f3	48 8b 44 24 28	 mov	 rax, QWORD PTR bytes_per_row$[rsp]
  000f8	48 89 84 24 60
	08 00 00	 mov	 QWORD PTR bytes_left$6[rsp], rax
$LN5@stbi__vert:

; 1232 :       while (bytes_left) {

  00100	48 83 bc 24 60
	08 00 00 00	 cmp	 QWORD PTR bytes_left$6[rsp], 0
  00109	0f 84 e9 00 00
	00		 je	 $LN6@stbi__vert

; 1233 :          size_t bytes_copy = (bytes_left < sizeof(temp)) ? bytes_left : sizeof(temp);

  0010f	48 81 bc 24 60
	08 00 00 00 08
	00 00		 cmp	 QWORD PTR bytes_left$6[rsp], 2048 ; 00000800H
  0011b	73 12		 jae	 SHORT $LN8@stbi__vert
  0011d	48 8b 84 24 60
	08 00 00	 mov	 rax, QWORD PTR bytes_left$6[rsp]
  00125	48 89 84 24 78
	08 00 00	 mov	 QWORD PTR tv80[rsp], rax
  0012d	eb 0c		 jmp	 SHORT $LN9@stbi__vert
$LN8@stbi__vert:
  0012f	48 c7 84 24 78
	08 00 00 00 08
	00 00		 mov	 QWORD PTR tv80[rsp], 2048 ; 00000800H
$LN9@stbi__vert:
  0013b	48 8b 84 24 78
	08 00 00	 mov	 rax, QWORD PTR tv80[rsp]
  00143	48 89 84 24 68
	08 00 00	 mov	 QWORD PTR bytes_copy$7[rsp], rax

; 1234 :          memcpy(temp, row0, bytes_copy);

  0014b	48 8d 44 24 40	 lea	 rax, QWORD PTR temp$[rsp]
  00150	48 8b f8	 mov	 rdi, rax
  00153	48 8b b4 24 50
	08 00 00	 mov	 rsi, QWORD PTR row0$4[rsp]
  0015b	48 8b 8c 24 68
	08 00 00	 mov	 rcx, QWORD PTR bytes_copy$7[rsp]
  00163	f3 a4		 rep movsb

; 1235 :          memcpy(row0, row1, bytes_copy);

  00165	48 8b bc 24 50
	08 00 00	 mov	 rdi, QWORD PTR row0$4[rsp]
  0016d	48 8b b4 24 58
	08 00 00	 mov	 rsi, QWORD PTR row1$5[rsp]
  00175	48 8b 8c 24 68
	08 00 00	 mov	 rcx, QWORD PTR bytes_copy$7[rsp]
  0017d	f3 a4		 rep movsb

; 1236 :          memcpy(row1, temp, bytes_copy);

  0017f	48 8d 44 24 40	 lea	 rax, QWORD PTR temp$[rsp]
  00184	48 8b bc 24 58
	08 00 00	 mov	 rdi, QWORD PTR row1$5[rsp]
  0018c	48 8b f0	 mov	 rsi, rax
  0018f	48 8b 8c 24 68
	08 00 00	 mov	 rcx, QWORD PTR bytes_copy$7[rsp]
  00197	f3 a4		 rep movsb

; 1237 :          row0 += bytes_copy;

  00199	48 8b 84 24 68
	08 00 00	 mov	 rax, QWORD PTR bytes_copy$7[rsp]
  001a1	48 8b 8c 24 50
	08 00 00	 mov	 rcx, QWORD PTR row0$4[rsp]
  001a9	48 03 c8	 add	 rcx, rax
  001ac	48 8b c1	 mov	 rax, rcx
  001af	48 89 84 24 50
	08 00 00	 mov	 QWORD PTR row0$4[rsp], rax

; 1238 :          row1 += bytes_copy;

  001b7	48 8b 84 24 68
	08 00 00	 mov	 rax, QWORD PTR bytes_copy$7[rsp]
  001bf	48 8b 8c 24 58
	08 00 00	 mov	 rcx, QWORD PTR row1$5[rsp]
  001c7	48 03 c8	 add	 rcx, rax
  001ca	48 8b c1	 mov	 rax, rcx
  001cd	48 89 84 24 58
	08 00 00	 mov	 QWORD PTR row1$5[rsp], rax

; 1239 :          bytes_left -= bytes_copy;

  001d5	48 8b 84 24 68
	08 00 00	 mov	 rax, QWORD PTR bytes_copy$7[rsp]
  001dd	48 8b 8c 24 60
	08 00 00	 mov	 rcx, QWORD PTR bytes_left$6[rsp]
  001e5	48 2b c8	 sub	 rcx, rax
  001e8	48 8b c1	 mov	 rax, rcx
  001eb	48 89 84 24 60
	08 00 00	 mov	 QWORD PTR bytes_left$6[rsp], rax

; 1240 :       }

  001f3	e9 08 ff ff ff	 jmp	 $LN5@stbi__vert
$LN6@stbi__vert:

; 1241 :    }

  001f8	e9 89 fe ff ff	 jmp	 $LN2@stbi__vert
$LN3@stbi__vert:

; 1242 : }

  001fd	48 8b cc	 mov	 rcx, rsp
  00200	48 8d 15 00 00
	00 00		 lea	 rdx, OFFSET FLAT:stbi__vertical_flip$rtcFrameData
  00207	e8 00 00 00 00	 call	 _RTC_CheckStackVars
  0020c	48 8b 8c 24 80
	08 00 00	 mov	 rcx, QWORD PTR __$ArrayPad$[rsp]
  00214	48 33 cc	 xor	 rcx, rsp
  00217	e8 00 00 00 00	 call	 __security_check_cookie
  0021c	48 81 c4 98 08
	00 00		 add	 rsp, 2200		; 00000898H
  00223	5f		 pop	 rdi
  00224	5e		 pop	 rsi
  00225	c3		 ret	 0
stbi__vertical_flip ENDP
_TEXT	ENDS
; Function compile flags: /Odtp /RTCsu
; File C:\Users\drago\source\repos\cGame - less comments\cGame\includes\stb-master\stb_image.h
_TEXT	SEGMENT
slice$ = 32
slice_size$ = 36
bytes$ = 40
image$ = 64
w$ = 72
h$ = 80
z$ = 88
bytes_per_pixel$ = 96
stbi__vertical_flip_slices PROC

; 1246 : {

  00000	44 89 4c 24 20	 mov	 DWORD PTR [rsp+32], r9d
  00005	44 89 44 24 18	 mov	 DWORD PTR [rsp+24], r8d
  0000a	89 54 24 10	 mov	 DWORD PTR [rsp+16], edx
  0000e	48 89 4c 24 08	 mov	 QWORD PTR [rsp+8], rcx
  00013	57		 push	 rdi
  00014	48 83 ec 30	 sub	 rsp, 48			; 00000030H
  00018	48 8d 0d 00 00
	00 00		 lea	 rcx, OFFSET FLAT:__D1DC2946_EntityManager@h
  0001f	e8 00 00 00 00	 call	 __CheckForDebuggerJustMyCode

; 1247 :    int slice;
; 1248 :    int slice_size = w * h * bytes_per_pixel;

  00024	8b 44 24 48	 mov	 eax, DWORD PTR w$[rsp]
  00028	0f af 44 24 50	 imul	 eax, DWORD PTR h$[rsp]
  0002d	0f af 44 24 60	 imul	 eax, DWORD PTR bytes_per_pixel$[rsp]
  00032	89 44 24 24	 mov	 DWORD PTR slice_size$[rsp], eax

; 1249 : 
; 1250 :    stbi_uc *bytes = (stbi_uc *)image;

  00036	48 8b 44 24 40	 mov	 rax, QWORD PTR image$[rsp]
  0003b	48 89 44 24 28	 mov	 QWORD PTR bytes$[rsp], rax

; 1251 :    for (slice = 0; slice < z; ++slice) {

  00040	c7 44 24 20 00
	00 00 00	 mov	 DWORD PTR slice$[rsp], 0
  00048	eb 0a		 jmp	 SHORT $LN4@stbi__vert
$LN2@stbi__vert:
  0004a	8b 44 24 20	 mov	 eax, DWORD PTR slice$[rsp]
  0004e	ff c0		 inc	 eax
  00050	89 44 24 20	 mov	 DWORD PTR slice$[rsp], eax
$LN4@stbi__vert:
  00054	8b 44 24 58	 mov	 eax, DWORD PTR z$[rsp]
  00058	39 44 24 20	 cmp	 DWORD PTR slice$[rsp], eax
  0005c	7d 2f		 jge	 SHORT $LN3@stbi__vert

; 1252 :       stbi__vertical_flip(bytes, w, h, bytes_per_pixel);

  0005e	44 8b 4c 24 60	 mov	 r9d, DWORD PTR bytes_per_pixel$[rsp]
  00063	44 8b 44 24 50	 mov	 r8d, DWORD PTR h$[rsp]
  00068	8b 54 24 48	 mov	 edx, DWORD PTR w$[rsp]
  0006c	48 8b 4c 24 28	 mov	 rcx, QWORD PTR bytes$[rsp]
  00071	e8 00 00 00 00	 call	 stbi__vertical_flip

; 1253 :       bytes += slice_size;

  00076	48 63 44 24 24	 movsxd	 rax, DWORD PTR slice_size$[rsp]
  0007b	48 8b 4c 24 28	 mov	 rcx, QWORD PTR bytes$[rsp]
  00080	48 03 c8	 add	 rcx, rax
  00083	48 8b c1	 mov	 rax, rcx
  00086	48 89 44 24 28	 mov	 QWORD PTR bytes$[rsp], rax

; 1254 :    }

  0008b	eb bd		 jmp	 SHORT $LN2@stbi__vert
$LN3@stbi__vert:

; 1255 : }

  0008d	48 83 c4 30	 add	 rsp, 48			; 00000030H
  00091	5f		 pop	 rdi
  00092	c3		 ret	 0
stbi__vertical_flip_slices ENDP
_TEXT	ENDS
; Function compile flags: /Odtp /RTCsu
; File C:\Users\drago\source\repos\cGame - less comments\cGame\includes\stb-master\stb_image.h
_TEXT	SEGMENT
ri$ = 72
result$ = 104
channels$4 = 112
tv82 = 128
tv94 = 132
tv129 = 136
__$ArrayPad$ = 144
s$ = 176
x$ = 184
y$ = 192
comp$ = 200
req_comp$ = 208
stbi__load_and_postprocess_8bit PROC

; 1259 : {

  00000	4c 89 4c 24 20	 mov	 QWORD PTR [rsp+32], r9
  00005	4c 89 44 24 18	 mov	 QWORD PTR [rsp+24], r8
  0000a	48 89 54 24 10	 mov	 QWORD PTR [rsp+16], rdx
  0000f	48 89 4c 24 08	 mov	 QWORD PTR [rsp+8], rcx
  00014	57		 push	 rdi
  00015	48 81 ec a0 00
	00 00		 sub	 rsp, 160		; 000000a0H
  0001c	48 8d 7c 24 40	 lea	 rdi, QWORD PTR [rsp+64]
  00021	b9 18 00 00 00	 mov	 ecx, 24
  00026	b8 cc cc cc cc	 mov	 eax, -858993460		; ccccccccH
  0002b	f3 ab		 rep stosd
  0002d	48 8b 8c 24 b0
	00 00 00	 mov	 rcx, QWORD PTR [rsp+176]
  00035	48 8b 05 00 00
	00 00		 mov	 rax, QWORD PTR __security_cookie
  0003c	48 33 c4	 xor	 rax, rsp
  0003f	48 89 84 24 90
	00 00 00	 mov	 QWORD PTR __$ArrayPad$[rsp], rax
  00047	48 8d 0d 00 00
	00 00		 lea	 rcx, OFFSET FLAT:__D1DC2946_EntityManager@h
  0004e	e8 00 00 00 00	 call	 __CheckForDebuggerJustMyCode

; 1260 :    stbi__result_info ri;
; 1261 :    void *result = stbi__load_main(s, x, y, comp, req_comp, &ri, 8);

  00053	c7 44 24 30 08
	00 00 00	 mov	 DWORD PTR [rsp+48], 8
  0005b	48 8d 44 24 48	 lea	 rax, QWORD PTR ri$[rsp]
  00060	48 89 44 24 28	 mov	 QWORD PTR [rsp+40], rax
  00065	8b 84 24 d0 00
	00 00		 mov	 eax, DWORD PTR req_comp$[rsp]
  0006c	89 44 24 20	 mov	 DWORD PTR [rsp+32], eax
  00070	4c 8b 8c 24 c8
	00 00 00	 mov	 r9, QWORD PTR comp$[rsp]
  00078	4c 8b 84 24 c0
	00 00 00	 mov	 r8, QWORD PTR y$[rsp]
  00080	48 8b 94 24 b8
	00 00 00	 mov	 rdx, QWORD PTR x$[rsp]
  00088	48 8b 8c 24 b0
	00 00 00	 mov	 rcx, QWORD PTR s$[rsp]
  00090	e8 00 00 00 00	 call	 stbi__load_main
  00095	48 89 44 24 68	 mov	 QWORD PTR result$[rsp], rax

; 1262 : 
; 1263 :    if (result == NULL)

  0009a	48 83 7c 24 68
	00		 cmp	 QWORD PTR result$[rsp], 0
  000a0	75 07		 jne	 SHORT $LN2@stbi__load

; 1264 :       return NULL;

  000a2	33 c0		 xor	 eax, eax
  000a4	e9 3f 01 00 00	 jmp	 $LN1@stbi__load
$LN2@stbi__load:

; 1265 : 
; 1266 :    // it is the responsibility of the loaders to make sure we get either 8 or 16 bit.
; 1267 :    STBI_ASSERT(ri.bits_per_channel == 8 || ri.bits_per_channel == 16);

  000a9	83 7c 24 48 08	 cmp	 DWORD PTR ri$[rsp], 8
  000ae	74 23		 je	 SHORT $LN6@stbi__load
  000b0	83 7c 24 48 10	 cmp	 DWORD PTR ri$[rsp], 16
  000b5	74 1c		 je	 SHORT $LN6@stbi__load
  000b7	41 b8 f3 04 00
	00		 mov	 r8d, 1267		; 000004f3H
  000bd	48 8d 15 00 00
	00 00		 lea	 rdx, OFFSET FLAT:??_C@_1LA@GJDALCKK@?$AAC?$AA?3?$AA?2?$AAU?$AAs?$AAe?$AAr?$AAs?$AA?2?$AAd?$AAr?$AAa?$AAg?$AAo?$AA?2@
  000c4	48 8d 0d 00 00
	00 00		 lea	 rcx, OFFSET FLAT:??_C@_1GM@LFNCFCEN@?$AAr?$AAi?$AA?4?$AAb?$AAi?$AAt?$AAs?$AA_?$AAp?$AAe?$AAr?$AA_?$AAc?$AAh?$AAa@
  000cb	ff 15 00 00 00
	00		 call	 QWORD PTR __imp__wassert
  000d1	33 c0		 xor	 eax, eax
$LN6@stbi__load:

; 1268 : 
; 1269 :    if (ri.bits_per_channel != 8) {

  000d3	83 7c 24 48 08	 cmp	 DWORD PTR ri$[rsp], 8
  000d8	74 5f		 je	 SHORT $LN3@stbi__load

; 1270 :       result = stbi__convert_16_to_8((stbi__uint16 *) result, *x, *y, req_comp == 0 ? *comp : req_comp);

  000da	83 bc 24 d0 00
	00 00 00	 cmp	 DWORD PTR req_comp$[rsp], 0
  000e2	75 13		 jne	 SHORT $LN7@stbi__load
  000e4	48 8b 84 24 c8
	00 00 00	 mov	 rax, QWORD PTR comp$[rsp]
  000ec	8b 00		 mov	 eax, DWORD PTR [rax]
  000ee	89 84 24 80 00
	00 00		 mov	 DWORD PTR tv82[rsp], eax
  000f5	eb 0e		 jmp	 SHORT $LN8@stbi__load
$LN7@stbi__load:
  000f7	8b 84 24 d0 00
	00 00		 mov	 eax, DWORD PTR req_comp$[rsp]
  000fe	89 84 24 80 00
	00 00		 mov	 DWORD PTR tv82[rsp], eax
$LN8@stbi__load:
  00105	44 8b 8c 24 80
	00 00 00	 mov	 r9d, DWORD PTR tv82[rsp]
  0010d	48 8b 84 24 c0
	00 00 00	 mov	 rax, QWORD PTR y$[rsp]
  00115	44 8b 00	 mov	 r8d, DWORD PTR [rax]
  00118	48 8b 84 24 b8
	00 00 00	 mov	 rax, QWORD PTR x$[rsp]
  00120	8b 10		 mov	 edx, DWORD PTR [rax]
  00122	48 8b 4c 24 68	 mov	 rcx, QWORD PTR result$[rsp]
  00127	e8 00 00 00 00	 call	 stbi__convert_16_to_8
  0012c	48 89 44 24 68	 mov	 QWORD PTR result$[rsp], rax

; 1271 :       ri.bits_per_channel = 8;

  00131	c7 44 24 48 08
	00 00 00	 mov	 DWORD PTR ri$[rsp], 8
$LN3@stbi__load:

; 1272 :    }
; 1273 : 
; 1274 :    // @TODO: move stbi__convert_format to here
; 1275 : 
; 1276 :    if (stbi__vertically_flip_on_load) {

  00139	b8 00 00 00 00	 mov	 eax, OFFSET FLAT:stbi__vertically_flip_on_load_set
  0013e	8b c0		 mov	 eax, eax
  00140	65 48 8b 0c 25
	58 00 00 00	 mov	 rcx, QWORD PTR gs:88
  00149	48 8b 09	 mov	 rcx, QWORD PTR [rcx]
  0014c	83 3c 08 00	 cmp	 DWORD PTR [rax+rcx], 0
  00150	74 1f		 je	 SHORT $LN9@stbi__load
  00152	b8 00 00 00 00	 mov	 eax, OFFSET FLAT:stbi__vertically_flip_on_load_local
  00157	8b c0		 mov	 eax, eax
  00159	65 48 8b 0c 25
	58 00 00 00	 mov	 rcx, QWORD PTR gs:88
  00162	48 8b 09	 mov	 rcx, QWORD PTR [rcx]
  00165	8b 04 08	 mov	 eax, DWORD PTR [rax+rcx]
  00168	89 84 24 84 00
	00 00		 mov	 DWORD PTR tv94[rsp], eax
  0016f	eb 0d		 jmp	 SHORT $LN10@stbi__load
$LN9@stbi__load:
  00171	8b 05 00 00 00
	00		 mov	 eax, DWORD PTR stbi__vertically_flip_on_load_global
  00177	89 84 24 84 00
	00 00		 mov	 DWORD PTR tv94[rsp], eax
$LN10@stbi__load:
  0017e	83 bc 24 84 00
	00 00 00	 cmp	 DWORD PTR tv94[rsp], 0
  00186	74 5b		 je	 SHORT $LN4@stbi__load

; 1277 :       int channels = req_comp ? req_comp : *comp;

  00188	83 bc 24 d0 00
	00 00 00	 cmp	 DWORD PTR req_comp$[rsp], 0
  00190	74 10		 je	 SHORT $LN11@stbi__load
  00192	8b 84 24 d0 00
	00 00		 mov	 eax, DWORD PTR req_comp$[rsp]
  00199	89 84 24 88 00
	00 00		 mov	 DWORD PTR tv129[rsp], eax
  001a0	eb 11		 jmp	 SHORT $LN12@stbi__load
$LN11@stbi__load:
  001a2	48 8b 84 24 c8
	00 00 00	 mov	 rax, QWORD PTR comp$[rsp]
  001aa	8b 00		 mov	 eax, DWORD PTR [rax]
  001ac	89 84 24 88 00
	00 00		 mov	 DWORD PTR tv129[rsp], eax
$LN12@stbi__load:
  001b3	8b 84 24 88 00
	00 00		 mov	 eax, DWORD PTR tv129[rsp]
  001ba	89 44 24 70	 mov	 DWORD PTR channels$4[rsp], eax

; 1278 :       stbi__vertical_flip(result, *x, *y, channels * sizeof(stbi_uc));

  001be	44 8b 4c 24 70	 mov	 r9d, DWORD PTR channels$4[rsp]
  001c3	48 8b 84 24 c0
	00 00 00	 mov	 rax, QWORD PTR y$[rsp]
  001cb	44 8b 00	 mov	 r8d, DWORD PTR [rax]
  001ce	48 8b 84 24 b8
	00 00 00	 mov	 rax, QWORD PTR x$[rsp]
  001d6	8b 10		 mov	 edx, DWORD PTR [rax]
  001d8	48 8b 4c 24 68	 mov	 rcx, QWORD PTR result$[rsp]
  001dd	e8 00 00 00 00	 call	 stbi__vertical_flip
  001e2	90		 npad	 1
$LN4@stbi__load:

; 1279 :    }
; 1280 : 
; 1281 :    return (unsigned char *) result;

  001e3	48 8b 44 24 68	 mov	 rax, QWORD PTR result$[rsp]
$LN1@stbi__load:

; 1282 : }

  001e8	48 8b f8	 mov	 rdi, rax
  001eb	48 8b cc	 mov	 rcx, rsp
  001ee	48 8d 15 00 00
	00 00		 lea	 rdx, OFFSET FLAT:stbi__load_and_postprocess_8bit$rtcFrameData
  001f5	e8 00 00 00 00	 call	 _RTC_CheckStackVars
  001fa	48 8b c7	 mov	 rax, rdi
  001fd	48 8b 8c 24 90
	00 00 00	 mov	 rcx, QWORD PTR __$ArrayPad$[rsp]
  00205	48 33 cc	 xor	 rcx, rsp
  00208	e8 00 00 00 00	 call	 __security_check_cookie
  0020d	48 81 c4 a0 00
	00 00		 add	 rsp, 160		; 000000a0H
  00214	5f		 pop	 rdi
  00215	c3		 ret	 0
stbi__load_and_postprocess_8bit ENDP
_TEXT	ENDS
; Function compile flags: /Odtp /RTCsu
; File C:\Users\drago\source\repos\cGame - less comments\cGame\includes\stb-master\stb_image.h
_TEXT	SEGMENT
ri$ = 72
result$ = 104
channels$4 = 112
tv82 = 128
tv94 = 132
tv129 = 136
__$ArrayPad$ = 144
s$ = 176
x$ = 184
y$ = 192
comp$ = 200
req_comp$ = 208
stbi__load_and_postprocess_16bit PROC

; 1285 : {

  00000	4c 89 4c 24 20	 mov	 QWORD PTR [rsp+32], r9
  00005	4c 89 44 24 18	 mov	 QWORD PTR [rsp+24], r8
  0000a	48 89 54 24 10	 mov	 QWORD PTR [rsp+16], rdx
  0000f	48 89 4c 24 08	 mov	 QWORD PTR [rsp+8], rcx
  00014	57		 push	 rdi
  00015	48 81 ec a0 00
	00 00		 sub	 rsp, 160		; 000000a0H
  0001c	48 8d 7c 24 40	 lea	 rdi, QWORD PTR [rsp+64]
  00021	b9 18 00 00 00	 mov	 ecx, 24
  00026	b8 cc cc cc cc	 mov	 eax, -858993460		; ccccccccH
  0002b	f3 ab		 rep stosd
  0002d	48 8b 8c 24 b0
	00 00 00	 mov	 rcx, QWORD PTR [rsp+176]
  00035	48 8b 05 00 00
	00 00		 mov	 rax, QWORD PTR __security_cookie
  0003c	48 33 c4	 xor	 rax, rsp
  0003f	48 89 84 24 90
	00 00 00	 mov	 QWORD PTR __$ArrayPad$[rsp], rax
  00047	48 8d 0d 00 00
	00 00		 lea	 rcx, OFFSET FLAT:__D1DC2946_EntityManager@h
  0004e	e8 00 00 00 00	 call	 __CheckForDebuggerJustMyCode

; 1286 :    stbi__result_info ri;
; 1287 :    void *result = stbi__load_main(s, x, y, comp, req_comp, &ri, 16);

  00053	c7 44 24 30 10
	00 00 00	 mov	 DWORD PTR [rsp+48], 16
  0005b	48 8d 44 24 48	 lea	 rax, QWORD PTR ri$[rsp]
  00060	48 89 44 24 28	 mov	 QWORD PTR [rsp+40], rax
  00065	8b 84 24 d0 00
	00 00		 mov	 eax, DWORD PTR req_comp$[rsp]
  0006c	89 44 24 20	 mov	 DWORD PTR [rsp+32], eax
  00070	4c 8b 8c 24 c8
	00 00 00	 mov	 r9, QWORD PTR comp$[rsp]
  00078	4c 8b 84 24 c0
	00 00 00	 mov	 r8, QWORD PTR y$[rsp]
  00080	48 8b 94 24 b8
	00 00 00	 mov	 rdx, QWORD PTR x$[rsp]
  00088	48 8b 8c 24 b0
	00 00 00	 mov	 rcx, QWORD PTR s$[rsp]
  00090	e8 00 00 00 00	 call	 stbi__load_main
  00095	48 89 44 24 68	 mov	 QWORD PTR result$[rsp], rax

; 1288 : 
; 1289 :    if (result == NULL)

  0009a	48 83 7c 24 68
	00		 cmp	 QWORD PTR result$[rsp], 0
  000a0	75 07		 jne	 SHORT $LN2@stbi__load

; 1290 :       return NULL;

  000a2	33 c0		 xor	 eax, eax
  000a4	e9 45 01 00 00	 jmp	 $LN1@stbi__load
$LN2@stbi__load:

; 1291 : 
; 1292 :    // it is the responsibility of the loaders to make sure we get either 8 or 16 bit.
; 1293 :    STBI_ASSERT(ri.bits_per_channel == 8 || ri.bits_per_channel == 16);

  000a9	83 7c 24 48 08	 cmp	 DWORD PTR ri$[rsp], 8
  000ae	74 23		 je	 SHORT $LN6@stbi__load
  000b0	83 7c 24 48 10	 cmp	 DWORD PTR ri$[rsp], 16
  000b5	74 1c		 je	 SHORT $LN6@stbi__load
  000b7	41 b8 0d 05 00
	00		 mov	 r8d, 1293		; 0000050dH
  000bd	48 8d 15 00 00
	00 00		 lea	 rdx, OFFSET FLAT:??_C@_1LA@GJDALCKK@?$AAC?$AA?3?$AA?2?$AAU?$AAs?$AAe?$AAr?$AAs?$AA?2?$AAd?$AAr?$AAa?$AAg?$AAo?$AA?2@
  000c4	48 8d 0d 00 00
	00 00		 lea	 rcx, OFFSET FLAT:??_C@_1GM@LFNCFCEN@?$AAr?$AAi?$AA?4?$AAb?$AAi?$AAt?$AAs?$AA_?$AAp?$AAe?$AAr?$AA_?$AAc?$AAh?$AAa@
  000cb	ff 15 00 00 00
	00		 call	 QWORD PTR __imp__wassert
  000d1	33 c0		 xor	 eax, eax
$LN6@stbi__load:

; 1294 : 
; 1295 :    if (ri.bits_per_channel != 16) {

  000d3	83 7c 24 48 10	 cmp	 DWORD PTR ri$[rsp], 16
  000d8	74 5f		 je	 SHORT $LN3@stbi__load

; 1296 :       result = stbi__convert_8_to_16((stbi_uc *) result, *x, *y, req_comp == 0 ? *comp : req_comp);

  000da	83 bc 24 d0 00
	00 00 00	 cmp	 DWORD PTR req_comp$[rsp], 0
  000e2	75 13		 jne	 SHORT $LN7@stbi__load
  000e4	48 8b 84 24 c8
	00 00 00	 mov	 rax, QWORD PTR comp$[rsp]
  000ec	8b 00		 mov	 eax, DWORD PTR [rax]
  000ee	89 84 24 80 00
	00 00		 mov	 DWORD PTR tv82[rsp], eax
  000f5	eb 0e		 jmp	 SHORT $LN8@stbi__load
$LN7@stbi__load:
  000f7	8b 84 24 d0 00
	00 00		 mov	 eax, DWORD PTR req_comp$[rsp]
  000fe	89 84 24 80 00
	00 00		 mov	 DWORD PTR tv82[rsp], eax
$LN8@stbi__load:
  00105	44 8b 8c 24 80
	00 00 00	 mov	 r9d, DWORD PTR tv82[rsp]
  0010d	48 8b 84 24 c0
	00 00 00	 mov	 rax, QWORD PTR y$[rsp]
  00115	44 8b 00	 mov	 r8d, DWORD PTR [rax]
  00118	48 8b 84 24 b8
	00 00 00	 mov	 rax, QWORD PTR x$[rsp]
  00120	8b 10		 mov	 edx, DWORD PTR [rax]
  00122	48 8b 4c 24 68	 mov	 rcx, QWORD PTR result$[rsp]
  00127	e8 00 00 00 00	 call	 stbi__convert_8_to_16
  0012c	48 89 44 24 68	 mov	 QWORD PTR result$[rsp], rax

; 1297 :       ri.bits_per_channel = 16;

  00131	c7 44 24 48 10
	00 00 00	 mov	 DWORD PTR ri$[rsp], 16
$LN3@stbi__load:

; 1298 :    }
; 1299 : 
; 1300 :    // @TODO: move stbi__convert_format16 to here
; 1301 :    // @TODO: special case RGB-to-Y (and RGBA-to-YA) for 8-bit-to-16-bit case to keep more precision
; 1302 : 
; 1303 :    if (stbi__vertically_flip_on_load) {

  00139	b8 00 00 00 00	 mov	 eax, OFFSET FLAT:stbi__vertically_flip_on_load_set
  0013e	8b c0		 mov	 eax, eax
  00140	65 48 8b 0c 25
	58 00 00 00	 mov	 rcx, QWORD PTR gs:88
  00149	48 8b 09	 mov	 rcx, QWORD PTR [rcx]
  0014c	83 3c 08 00	 cmp	 DWORD PTR [rax+rcx], 0
  00150	74 1f		 je	 SHORT $LN9@stbi__load
  00152	b8 00 00 00 00	 mov	 eax, OFFSET FLAT:stbi__vertically_flip_on_load_local
  00157	8b c0		 mov	 eax, eax
  00159	65 48 8b 0c 25
	58 00 00 00	 mov	 rcx, QWORD PTR gs:88
  00162	48 8b 09	 mov	 rcx, QWORD PTR [rcx]
  00165	8b 04 08	 mov	 eax, DWORD PTR [rax+rcx]
  00168	89 84 24 84 00
	00 00		 mov	 DWORD PTR tv94[rsp], eax
  0016f	eb 0d		 jmp	 SHORT $LN10@stbi__load
$LN9@stbi__load:
  00171	8b 05 00 00 00
	00		 mov	 eax, DWORD PTR stbi__vertically_flip_on_load_global
  00177	89 84 24 84 00
	00 00		 mov	 DWORD PTR tv94[rsp], eax
$LN10@stbi__load:
  0017e	83 bc 24 84 00
	00 00 00	 cmp	 DWORD PTR tv94[rsp], 0
  00186	74 61		 je	 SHORT $LN4@stbi__load

; 1304 :       int channels = req_comp ? req_comp : *comp;

  00188	83 bc 24 d0 00
	00 00 00	 cmp	 DWORD PTR req_comp$[rsp], 0
  00190	74 10		 je	 SHORT $LN11@stbi__load
  00192	8b 84 24 d0 00
	00 00		 mov	 eax, DWORD PTR req_comp$[rsp]
  00199	89 84 24 88 00
	00 00		 mov	 DWORD PTR tv129[rsp], eax
  001a0	eb 11		 jmp	 SHORT $LN12@stbi__load
$LN11@stbi__load:
  001a2	48 8b 84 24 c8
	00 00 00	 mov	 rax, QWORD PTR comp$[rsp]
  001aa	8b 00		 mov	 eax, DWORD PTR [rax]
  001ac	89 84 24 88 00
	00 00		 mov	 DWORD PTR tv129[rsp], eax
$LN12@stbi__load:
  001b3	8b 84 24 88 00
	00 00		 mov	 eax, DWORD PTR tv129[rsp]
  001ba	89 44 24 70	 mov	 DWORD PTR channels$4[rsp], eax

; 1305 :       stbi__vertical_flip(result, *x, *y, channels * sizeof(stbi__uint16));

  001be	48 63 44 24 70	 movsxd	 rax, DWORD PTR channels$4[rsp]
  001c3	48 d1 e0	 shl	 rax, 1
  001c6	44 8b c8	 mov	 r9d, eax
  001c9	48 8b 84 24 c0
	00 00 00	 mov	 rax, QWORD PTR y$[rsp]
  001d1	44 8b 00	 mov	 r8d, DWORD PTR [rax]
  001d4	48 8b 84 24 b8
	00 00 00	 mov	 rax, QWORD PTR x$[rsp]
  001dc	8b 10		 mov	 edx, DWORD PTR [rax]
  001de	48 8b 4c 24 68	 mov	 rcx, QWORD PTR result$[rsp]
  001e3	e8 00 00 00 00	 call	 stbi__vertical_flip
  001e8	90		 npad	 1
$LN4@stbi__load:

; 1306 :    }
; 1307 : 
; 1308 :    return (stbi__uint16 *) result;

  001e9	48 8b 44 24 68	 mov	 rax, QWORD PTR result$[rsp]
$LN1@stbi__load:

; 1309 : }

  001ee	48 8b f8	 mov	 rdi, rax
  001f1	48 8b cc	 mov	 rcx, rsp
  001f4	48 8d 15 00 00
	00 00		 lea	 rdx, OFFSET FLAT:stbi__load_and_postprocess_16bit$rtcFrameData
  001fb	e8 00 00 00 00	 call	 _RTC_CheckStackVars
  00200	48 8b c7	 mov	 rax, rdi
  00203	48 8b 8c 24 90
	00 00 00	 mov	 rcx, QWORD PTR __$ArrayPad$[rsp]
  0020b	48 33 cc	 xor	 rcx, rsp
  0020e	e8 00 00 00 00	 call	 __security_check_cookie
  00213	48 81 c4 a0 00
	00 00		 add	 rsp, 160		; 000000a0H
  0021a	5f		 pop	 rdi
  0021b	c3		 ret	 0
stbi__load_and_postprocess_16bit ENDP
_TEXT	ENDS
; Function compile flags: /Odtp /RTCsu
; File C:\Users\drago\source\repos\cGame - less comments\cGame\includes\stb-master\stb_image.h
_TEXT	SEGMENT
channels$1 = 32
tv71 = 36
tv75 = 40
result$ = 64
x$ = 72
y$ = 80
comp$ = 88
req_comp$ = 96
stbi__float_postprocess PROC

; 1313 : {

  00000	4c 89 4c 24 20	 mov	 QWORD PTR [rsp+32], r9
  00005	4c 89 44 24 18	 mov	 QWORD PTR [rsp+24], r8
  0000a	48 89 54 24 10	 mov	 QWORD PTR [rsp+16], rdx
  0000f	48 89 4c 24 08	 mov	 QWORD PTR [rsp+8], rcx
  00014	57		 push	 rdi
  00015	48 83 ec 30	 sub	 rsp, 48			; 00000030H
  00019	48 8d 0d 00 00
	00 00		 lea	 rcx, OFFSET FLAT:__D1DC2946_EntityManager@h
  00020	e8 00 00 00 00	 call	 __CheckForDebuggerJustMyCode

; 1314 :    if (stbi__vertically_flip_on_load && result != NULL) {

  00025	b8 00 00 00 00	 mov	 eax, OFFSET FLAT:stbi__vertically_flip_on_load_set
  0002a	8b c0		 mov	 eax, eax
  0002c	65 48 8b 0c 25
	58 00 00 00	 mov	 rcx, QWORD PTR gs:88
  00035	48 8b 09	 mov	 rcx, QWORD PTR [rcx]
  00038	83 3c 08 00	 cmp	 DWORD PTR [rax+rcx], 0
  0003c	74 1c		 je	 SHORT $LN4@stbi__floa
  0003e	b8 00 00 00 00	 mov	 eax, OFFSET FLAT:stbi__vertically_flip_on_load_local
  00043	8b c0		 mov	 eax, eax
  00045	65 48 8b 0c 25
	58 00 00 00	 mov	 rcx, QWORD PTR gs:88
  0004e	48 8b 09	 mov	 rcx, QWORD PTR [rcx]
  00051	8b 04 08	 mov	 eax, DWORD PTR [rax+rcx]
  00054	89 44 24 24	 mov	 DWORD PTR tv71[rsp], eax
  00058	eb 0a		 jmp	 SHORT $LN5@stbi__floa
$LN4@stbi__floa:
  0005a	8b 05 00 00 00
	00		 mov	 eax, DWORD PTR stbi__vertically_flip_on_load_global
  00060	89 44 24 24	 mov	 DWORD PTR tv71[rsp], eax
$LN5@stbi__floa:
  00064	83 7c 24 24 00	 cmp	 DWORD PTR tv71[rsp], 0
  00069	74 52		 je	 SHORT $LN2@stbi__floa
  0006b	48 83 7c 24 40
	00		 cmp	 QWORD PTR result$[rsp], 0
  00071	74 4a		 je	 SHORT $LN2@stbi__floa

; 1315 :       int channels = req_comp ? req_comp : *comp;

  00073	83 7c 24 60 00	 cmp	 DWORD PTR req_comp$[rsp], 0
  00078	74 0a		 je	 SHORT $LN6@stbi__floa
  0007a	8b 44 24 60	 mov	 eax, DWORD PTR req_comp$[rsp]
  0007e	89 44 24 28	 mov	 DWORD PTR tv75[rsp], eax
  00082	eb 0b		 jmp	 SHORT $LN7@stbi__floa
$LN6@stbi__floa:
  00084	48 8b 44 24 58	 mov	 rax, QWORD PTR comp$[rsp]
  00089	8b 00		 mov	 eax, DWORD PTR [rax]
  0008b	89 44 24 28	 mov	 DWORD PTR tv75[rsp], eax
$LN7@stbi__floa:
  0008f	8b 44 24 28	 mov	 eax, DWORD PTR tv75[rsp]
  00093	89 44 24 20	 mov	 DWORD PTR channels$1[rsp], eax

; 1316 :       stbi__vertical_flip(result, *x, *y, channels * sizeof(float));

  00097	48 63 44 24 20	 movsxd	 rax, DWORD PTR channels$1[rsp]
  0009c	48 c1 e0 02	 shl	 rax, 2
  000a0	44 8b c8	 mov	 r9d, eax
  000a3	48 8b 44 24 50	 mov	 rax, QWORD PTR y$[rsp]
  000a8	44 8b 00	 mov	 r8d, DWORD PTR [rax]
  000ab	48 8b 44 24 48	 mov	 rax, QWORD PTR x$[rsp]
  000b0	8b 10		 mov	 edx, DWORD PTR [rax]
  000b2	48 8b 4c 24 40	 mov	 rcx, QWORD PTR result$[rsp]
  000b7	e8 00 00 00 00	 call	 stbi__vertical_flip
  000bc	90		 npad	 1
$LN2@stbi__floa:

; 1317 :    }
; 1318 : }

  000bd	48 83 c4 30	 add	 rsp, 48			; 00000030H
  000c1	5f		 pop	 rdi
  000c2	c3		 ret	 0
stbi__float_postprocess ENDP
_TEXT	ENDS
; Function compile flags: /Odtp /RTCsu
; File C:\Users\drago\source\repos\cGame - less comments\cGame\includes\stb-master\stb_image.h
_TEXT	SEGMENT
f$ = 40
__$ArrayPad$ = 64
filename$ = 96
mode$ = 104
stbi__fopen PROC

; 1336 : {

  00000	48 89 54 24 10	 mov	 QWORD PTR [rsp+16], rdx
  00005	48 89 4c 24 08	 mov	 QWORD PTR [rsp+8], rcx
  0000a	57		 push	 rdi
  0000b	48 83 ec 50	 sub	 rsp, 80			; 00000050H
  0000f	48 8d 7c 24 20	 lea	 rdi, QWORD PTR [rsp+32]
  00014	b9 0c 00 00 00	 mov	 ecx, 12
  00019	b8 cc cc cc cc	 mov	 eax, -858993460		; ccccccccH
  0001e	f3 ab		 rep stosd
  00020	48 8b 4c 24 60	 mov	 rcx, QWORD PTR [rsp+96]
  00025	48 8b 05 00 00
	00 00		 mov	 rax, QWORD PTR __security_cookie
  0002c	48 33 c4	 xor	 rax, rsp
  0002f	48 89 44 24 40	 mov	 QWORD PTR __$ArrayPad$[rsp], rax
  00034	48 8d 0d 00 00
	00 00		 lea	 rcx, OFFSET FLAT:__D1DC2946_EntityManager@h
  0003b	e8 00 00 00 00	 call	 __CheckForDebuggerJustMyCode

; 1337 :    FILE *f;
; 1338 : #if defined(_WIN32) && defined(STBI_WINDOWS_UTF8)
; 1339 :    wchar_t wMode[64];
; 1340 :    wchar_t wFilename[1024];
; 1341 : 	if (0 == MultiByteToWideChar(65001 /* UTF8 */, 0, filename, -1, wFilename, sizeof(wFilename)/sizeof(*wFilename)))
; 1342 :       return 0;
; 1343 : 
; 1344 : 	if (0 == MultiByteToWideChar(65001 /* UTF8 */, 0, mode, -1, wMode, sizeof(wMode)/sizeof(*wMode)))
; 1345 :       return 0;
; 1346 : 
; 1347 : #if defined(_MSC_VER) && _MSC_VER >= 1400
; 1348 : 	if (0 != _wfopen_s(&f, wFilename, wMode))
; 1349 : 		f = 0;
; 1350 : #else
; 1351 :    f = _wfopen(wFilename, wMode);
; 1352 : #endif
; 1353 : 
; 1354 : #elif defined(_MSC_VER) && _MSC_VER >= 1400
; 1355 :    if (0 != fopen_s(&f, filename, mode))

  00040	4c 8b 44 24 68	 mov	 r8, QWORD PTR mode$[rsp]
  00045	48 8b 54 24 60	 mov	 rdx, QWORD PTR filename$[rsp]
  0004a	48 8d 4c 24 28	 lea	 rcx, QWORD PTR f$[rsp]
  0004f	ff 15 00 00 00
	00		 call	 QWORD PTR __imp_fopen_s
  00055	85 c0		 test	 eax, eax
  00057	74 09		 je	 SHORT $LN2@stbi__fope

; 1356 :       f=0;

  00059	48 c7 44 24 28
	00 00 00 00	 mov	 QWORD PTR f$[rsp], 0
$LN2@stbi__fope:

; 1357 : #else
; 1358 :    f = fopen(filename, mode);
; 1359 : #endif
; 1360 :    return f;

  00062	48 8b 44 24 28	 mov	 rax, QWORD PTR f$[rsp]

; 1361 : }

  00067	48 8b f8	 mov	 rdi, rax
  0006a	48 8b cc	 mov	 rcx, rsp
  0006d	48 8d 15 00 00
	00 00		 lea	 rdx, OFFSET FLAT:stbi__fopen$rtcFrameData
  00074	e8 00 00 00 00	 call	 _RTC_CheckStackVars
  00079	48 8b c7	 mov	 rax, rdi
  0007c	48 8b 4c 24 40	 mov	 rcx, QWORD PTR __$ArrayPad$[rsp]
  00081	48 33 cc	 xor	 rcx, rsp
  00084	e8 00 00 00 00	 call	 __security_check_cookie
  00089	48 83 c4 50	 add	 rsp, 80			; 00000050H
  0008d	5f		 pop	 rdi
  0008e	c3		 ret	 0
stbi__fopen ENDP
_TEXT	ENDS
; Function compile flags: /Odtp /RTCsu
; File C:\Users\drago\source\repos\cGame - less comments\cGame\includes\stb-master\stb_image.h
_TEXT	SEGMENT
f$ = 48
result$ = 56
tv71 = 64
filename$ = 96
x$ = 104
y$ = 112
comp$ = 120
req_comp$ = 128
stbi_load PROC

; 1365 : {

$LN6:
  00000	4c 89 4c 24 20	 mov	 QWORD PTR [rsp+32], r9
  00005	4c 89 44 24 18	 mov	 QWORD PTR [rsp+24], r8
  0000a	48 89 54 24 10	 mov	 QWORD PTR [rsp+16], rdx
  0000f	48 89 4c 24 08	 mov	 QWORD PTR [rsp+8], rcx
  00014	57		 push	 rdi
  00015	48 83 ec 50	 sub	 rsp, 80			; 00000050H
  00019	48 8d 0d 00 00
	00 00		 lea	 rcx, OFFSET FLAT:__D1DC2946_EntityManager@h
  00020	e8 00 00 00 00	 call	 __CheckForDebuggerJustMyCode

; 1366 :    FILE *f = stbi__fopen(filename, "rb");

  00025	48 8d 15 00 00
	00 00		 lea	 rdx, OFFSET FLAT:??_C@_02JDPG@rb@
  0002c	48 8b 4c 24 60	 mov	 rcx, QWORD PTR filename$[rsp]
  00031	e8 00 00 00 00	 call	 stbi__fopen
  00036	48 89 44 24 30	 mov	 QWORD PTR f$[rsp], rax

; 1367 :    unsigned char *result;
; 1368 :    if (!f) return stbi__errpuc("can't fopen", "Unable to open file");

  0003b	48 83 7c 24 30
	00		 cmp	 QWORD PTR f$[rsp], 0
  00041	75 2b		 jne	 SHORT $LN2@stbi_load
  00043	48 8d 0d 00 00
	00 00		 lea	 rcx, OFFSET FLAT:??_C@_0M@JPDHFAGK@can?8t?5fopen@
  0004a	e8 00 00 00 00	 call	 stbi__err
  0004f	85 c0		 test	 eax, eax
  00051	74 0b		 je	 SHORT $LN4@stbi_load
  00053	48 c7 44 24 40
	00 00 00 00	 mov	 QWORD PTR tv71[rsp], 0
  0005c	eb 09		 jmp	 SHORT $LN5@stbi_load
$LN4@stbi_load:
  0005e	48 c7 44 24 40
	00 00 00 00	 mov	 QWORD PTR tv71[rsp], 0
$LN5@stbi_load:
  00067	48 8b 44 24 40	 mov	 rax, QWORD PTR tv71[rsp]
  0006c	eb 39		 jmp	 SHORT $LN1@stbi_load
$LN2@stbi_load:

; 1369 :    result = stbi_load_from_file(f,x,y,comp,req_comp);

  0006e	8b 84 24 80 00
	00 00		 mov	 eax, DWORD PTR req_comp$[rsp]
  00075	89 44 24 20	 mov	 DWORD PTR [rsp+32], eax
  00079	4c 8b 4c 24 78	 mov	 r9, QWORD PTR comp$[rsp]
  0007e	4c 8b 44 24 70	 mov	 r8, QWORD PTR y$[rsp]
  00083	48 8b 54 24 68	 mov	 rdx, QWORD PTR x$[rsp]
  00088	48 8b 4c 24 30	 mov	 rcx, QWORD PTR f$[rsp]
  0008d	e8 00 00 00 00	 call	 stbi_load_from_file
  00092	48 89 44 24 38	 mov	 QWORD PTR result$[rsp], rax

; 1370 :    fclose(f);

  00097	48 8b 4c 24 30	 mov	 rcx, QWORD PTR f$[rsp]
  0009c	ff 15 00 00 00
	00		 call	 QWORD PTR __imp_fclose

; 1371 :    return result;

  000a2	48 8b 44 24 38	 mov	 rax, QWORD PTR result$[rsp]
$LN1@stbi_load:

; 1372 : }

  000a7	48 83 c4 50	 add	 rsp, 80			; 00000050H
  000ab	5f		 pop	 rdi
  000ac	c3		 ret	 0
stbi_load ENDP
_TEXT	ENDS
; Function compile flags: /Odtp /RTCsu
; File C:\Users\drago\source\repos\cGame - less comments\cGame\includes\stb-master\stb_image.h
_TEXT	SEGMENT
result$ = 48
s$ = 80
__$ArrayPad$ = 320
f$ = 352
x$ = 360
y$ = 368
comp$ = 376
req_comp$ = 384
stbi_load_from_file PROC

; 1375 : {

$LN4:
  00000	4c 89 4c 24 20	 mov	 QWORD PTR [rsp+32], r9
  00005	4c 89 44 24 18	 mov	 QWORD PTR [rsp+24], r8
  0000a	48 89 54 24 10	 mov	 QWORD PTR [rsp+16], rdx
  0000f	48 89 4c 24 08	 mov	 QWORD PTR [rsp+8], rcx
  00014	57		 push	 rdi
  00015	48 81 ec 50 01
	00 00		 sub	 rsp, 336		; 00000150H
  0001c	48 8d 7c 24 30	 lea	 rdi, QWORD PTR [rsp+48]
  00021	b9 48 00 00 00	 mov	 ecx, 72			; 00000048H
  00026	b8 cc cc cc cc	 mov	 eax, -858993460		; ccccccccH
  0002b	f3 ab		 rep stosd
  0002d	48 8b 8c 24 60
	01 00 00	 mov	 rcx, QWORD PTR [rsp+352]
  00035	48 8b 05 00 00
	00 00		 mov	 rax, QWORD PTR __security_cookie
  0003c	48 33 c4	 xor	 rax, rsp
  0003f	48 89 84 24 40
	01 00 00	 mov	 QWORD PTR __$ArrayPad$[rsp], rax
  00047	48 8d 0d 00 00
	00 00		 lea	 rcx, OFFSET FLAT:__D1DC2946_EntityManager@h
  0004e	e8 00 00 00 00	 call	 __CheckForDebuggerJustMyCode

; 1376 :    unsigned char *result;
; 1377 :    stbi__context s;
; 1378 :    stbi__start_file(&s,f);

  00053	48 8b 94 24 60
	01 00 00	 mov	 rdx, QWORD PTR f$[rsp]
  0005b	48 8d 4c 24 50	 lea	 rcx, QWORD PTR s$[rsp]
  00060	e8 00 00 00 00	 call	 stbi__start_file

; 1379 :    result = stbi__load_and_postprocess_8bit(&s,x,y,comp,req_comp);

  00065	8b 84 24 80 01
	00 00		 mov	 eax, DWORD PTR req_comp$[rsp]
  0006c	89 44 24 20	 mov	 DWORD PTR [rsp+32], eax
  00070	4c 8b 8c 24 78
	01 00 00	 mov	 r9, QWORD PTR comp$[rsp]
  00078	4c 8b 84 24 70
	01 00 00	 mov	 r8, QWORD PTR y$[rsp]
  00080	48 8b 94 24 68
	01 00 00	 mov	 rdx, QWORD PTR x$[rsp]
  00088	48 8d 4c 24 50	 lea	 rcx, QWORD PTR s$[rsp]
  0008d	e8 00 00 00 00	 call	 stbi__load_and_postprocess_8bit
  00092	48 89 44 24 30	 mov	 QWORD PTR result$[rsp], rax

; 1380 :    if (result) {

  00097	48 83 7c 24 30
	00		 cmp	 QWORD PTR result$[rsp], 0
  0009d	74 2f		 je	 SHORT $LN2@stbi_load_

; 1381 :       // need to 'unget' all the characters in the IO buffer
; 1382 :       fseek(f, - (int) (s.img_buffer_end - s.img_buffer), SEEK_CUR);

  0009f	48 8b 84 24 10
	01 00 00	 mov	 rax, QWORD PTR s$[rsp+192]
  000a7	48 8b 8c 24 18
	01 00 00	 mov	 rcx, QWORD PTR s$[rsp+200]
  000af	48 2b c8	 sub	 rcx, rax
  000b2	48 8b c1	 mov	 rax, rcx
  000b5	f7 d8		 neg	 eax
  000b7	41 b8 01 00 00
	00		 mov	 r8d, 1
  000bd	8b d0		 mov	 edx, eax
  000bf	48 8b 8c 24 60
	01 00 00	 mov	 rcx, QWORD PTR f$[rsp]
  000c7	ff 15 00 00 00
	00		 call	 QWORD PTR __imp_fseek
  000cd	90		 npad	 1
$LN2@stbi_load_:

; 1383 :    }
; 1384 :    return result;

  000ce	48 8b 44 24 30	 mov	 rax, QWORD PTR result$[rsp]

; 1385 : }

  000d3	48 8b f8	 mov	 rdi, rax
  000d6	48 8b cc	 mov	 rcx, rsp
  000d9	48 8d 15 00 00
	00 00		 lea	 rdx, OFFSET FLAT:stbi_load_from_file$rtcFrameData
  000e0	e8 00 00 00 00	 call	 _RTC_CheckStackVars
  000e5	48 8b c7	 mov	 rax, rdi
  000e8	48 8b 8c 24 40
	01 00 00	 mov	 rcx, QWORD PTR __$ArrayPad$[rsp]
  000f0	48 33 cc	 xor	 rcx, rsp
  000f3	e8 00 00 00 00	 call	 __security_check_cookie
  000f8	48 81 c4 50 01
	00 00		 add	 rsp, 336		; 00000150H
  000ff	5f		 pop	 rdi
  00100	c3		 ret	 0
stbi_load_from_file ENDP
_TEXT	ENDS
; Function compile flags: /Odtp /RTCsu
; File C:\Users\drago\source\repos\cGame - less comments\cGame\includes\stb-master\stb_image.h
_TEXT	SEGMENT
result$ = 48
s$ = 80
__$ArrayPad$ = 320
f$ = 352
x$ = 360
y$ = 368
comp$ = 376
req_comp$ = 384
stbi_load_from_file_16 PROC

; 1388 : {

$LN4:
  00000	4c 89 4c 24 20	 mov	 QWORD PTR [rsp+32], r9
  00005	4c 89 44 24 18	 mov	 QWORD PTR [rsp+24], r8
  0000a	48 89 54 24 10	 mov	 QWORD PTR [rsp+16], rdx
  0000f	48 89 4c 24 08	 mov	 QWORD PTR [rsp+8], rcx
  00014	57		 push	 rdi
  00015	48 81 ec 50 01
	00 00		 sub	 rsp, 336		; 00000150H
  0001c	48 8d 7c 24 30	 lea	 rdi, QWORD PTR [rsp+48]
  00021	b9 48 00 00 00	 mov	 ecx, 72			; 00000048H
  00026	b8 cc cc cc cc	 mov	 eax, -858993460		; ccccccccH
  0002b	f3 ab		 rep stosd
  0002d	48 8b 8c 24 60
	01 00 00	 mov	 rcx, QWORD PTR [rsp+352]
  00035	48 8b 05 00 00
	00 00		 mov	 rax, QWORD PTR __security_cookie
  0003c	48 33 c4	 xor	 rax, rsp
  0003f	48 89 84 24 40
	01 00 00	 mov	 QWORD PTR __$ArrayPad$[rsp], rax
  00047	48 8d 0d 00 00
	00 00		 lea	 rcx, OFFSET FLAT:__D1DC2946_EntityManager@h
  0004e	e8 00 00 00 00	 call	 __CheckForDebuggerJustMyCode

; 1389 :    stbi__uint16 *result;
; 1390 :    stbi__context s;
; 1391 :    stbi__start_file(&s,f);

  00053	48 8b 94 24 60
	01 00 00	 mov	 rdx, QWORD PTR f$[rsp]
  0005b	48 8d 4c 24 50	 lea	 rcx, QWORD PTR s$[rsp]
  00060	e8 00 00 00 00	 call	 stbi__start_file

; 1392 :    result = stbi__load_and_postprocess_16bit(&s,x,y,comp,req_comp);

  00065	8b 84 24 80 01
	00 00		 mov	 eax, DWORD PTR req_comp$[rsp]
  0006c	89 44 24 20	 mov	 DWORD PTR [rsp+32], eax
  00070	4c 8b 8c 24 78
	01 00 00	 mov	 r9, QWORD PTR comp$[rsp]
  00078	4c 8b 84 24 70
	01 00 00	 mov	 r8, QWORD PTR y$[rsp]
  00080	48 8b 94 24 68
	01 00 00	 mov	 rdx, QWORD PTR x$[rsp]
  00088	48 8d 4c 24 50	 lea	 rcx, QWORD PTR s$[rsp]
  0008d	e8 00 00 00 00	 call	 stbi__load_and_postprocess_16bit
  00092	48 89 44 24 30	 mov	 QWORD PTR result$[rsp], rax

; 1393 :    if (result) {

  00097	48 83 7c 24 30
	00		 cmp	 QWORD PTR result$[rsp], 0
  0009d	74 2f		 je	 SHORT $LN2@stbi_load_

; 1394 :       // need to 'unget' all the characters in the IO buffer
; 1395 :       fseek(f, - (int) (s.img_buffer_end - s.img_buffer), SEEK_CUR);

  0009f	48 8b 84 24 10
	01 00 00	 mov	 rax, QWORD PTR s$[rsp+192]
  000a7	48 8b 8c 24 18
	01 00 00	 mov	 rcx, QWORD PTR s$[rsp+200]
  000af	48 2b c8	 sub	 rcx, rax
  000b2	48 8b c1	 mov	 rax, rcx
  000b5	f7 d8		 neg	 eax
  000b7	41 b8 01 00 00
	00		 mov	 r8d, 1
  000bd	8b d0		 mov	 edx, eax
  000bf	48 8b 8c 24 60
	01 00 00	 mov	 rcx, QWORD PTR f$[rsp]
  000c7	ff 15 00 00 00
	00		 call	 QWORD PTR __imp_fseek
  000cd	90		 npad	 1
$LN2@stbi_load_:

; 1396 :    }
; 1397 :    return result;

  000ce	48 8b 44 24 30	 mov	 rax, QWORD PTR result$[rsp]

; 1398 : }

  000d3	48 8b f8	 mov	 rdi, rax
  000d6	48 8b cc	 mov	 rcx, rsp
  000d9	48 8d 15 00 00
	00 00		 lea	 rdx, OFFSET FLAT:stbi_load_from_file_16$rtcFrameData
  000e0	e8 00 00 00 00	 call	 _RTC_CheckStackVars
  000e5	48 8b c7	 mov	 rax, rdi
  000e8	48 8b 8c 24 40
	01 00 00	 mov	 rcx, QWORD PTR __$ArrayPad$[rsp]
  000f0	48 33 cc	 xor	 rcx, rsp
  000f3	e8 00 00 00 00	 call	 __security_check_cookie
  000f8	48 81 c4 50 01
	00 00		 add	 rsp, 336		; 00000150H
  000ff	5f		 pop	 rdi
  00100	c3		 ret	 0
stbi_load_from_file_16 ENDP
_TEXT	ENDS
; Function compile flags: /Odtp /RTCsu
; File C:\Users\drago\source\repos\cGame - less comments\cGame\includes\stb-master\stb_image.h
_TEXT	SEGMENT
f$ = 48
result$ = 56
tv71 = 64
filename$ = 96
x$ = 104
y$ = 112
comp$ = 120
req_comp$ = 128
stbi_load_16 PROC

; 1401 : {

$LN6:
  00000	4c 89 4c 24 20	 mov	 QWORD PTR [rsp+32], r9
  00005	4c 89 44 24 18	 mov	 QWORD PTR [rsp+24], r8
  0000a	48 89 54 24 10	 mov	 QWORD PTR [rsp+16], rdx
  0000f	48 89 4c 24 08	 mov	 QWORD PTR [rsp+8], rcx
  00014	57		 push	 rdi
  00015	48 83 ec 50	 sub	 rsp, 80			; 00000050H
  00019	48 8d 0d 00 00
	00 00		 lea	 rcx, OFFSET FLAT:__D1DC2946_EntityManager@h
  00020	e8 00 00 00 00	 call	 __CheckForDebuggerJustMyCode

; 1402 :    FILE *f = stbi__fopen(filename, "rb");

  00025	48 8d 15 00 00
	00 00		 lea	 rdx, OFFSET FLAT:??_C@_02JDPG@rb@
  0002c	48 8b 4c 24 60	 mov	 rcx, QWORD PTR filename$[rsp]
  00031	e8 00 00 00 00	 call	 stbi__fopen
  00036	48 89 44 24 30	 mov	 QWORD PTR f$[rsp], rax

; 1403 :    stbi__uint16 *result;
; 1404 :    if (!f) return (stbi_us *) stbi__errpuc("can't fopen", "Unable to open file");

  0003b	48 83 7c 24 30
	00		 cmp	 QWORD PTR f$[rsp], 0
  00041	75 2b		 jne	 SHORT $LN2@stbi_load_
  00043	48 8d 0d 00 00
	00 00		 lea	 rcx, OFFSET FLAT:??_C@_0M@JPDHFAGK@can?8t?5fopen@
  0004a	e8 00 00 00 00	 call	 stbi__err
  0004f	85 c0		 test	 eax, eax
  00051	74 0b		 je	 SHORT $LN4@stbi_load_
  00053	48 c7 44 24 40
	00 00 00 00	 mov	 QWORD PTR tv71[rsp], 0
  0005c	eb 09		 jmp	 SHORT $LN5@stbi_load_
$LN4@stbi_load_:
  0005e	48 c7 44 24 40
	00 00 00 00	 mov	 QWORD PTR tv71[rsp], 0
$LN5@stbi_load_:
  00067	48 8b 44 24 40	 mov	 rax, QWORD PTR tv71[rsp]
  0006c	eb 39		 jmp	 SHORT $LN1@stbi_load_
$LN2@stbi_load_:

; 1405 :    result = stbi_load_from_file_16(f,x,y,comp,req_comp);

  0006e	8b 84 24 80 00
	00 00		 mov	 eax, DWORD PTR req_comp$[rsp]
  00075	89 44 24 20	 mov	 DWORD PTR [rsp+32], eax
  00079	4c 8b 4c 24 78	 mov	 r9, QWORD PTR comp$[rsp]
  0007e	4c 8b 44 24 70	 mov	 r8, QWORD PTR y$[rsp]
  00083	48 8b 54 24 68	 mov	 rdx, QWORD PTR x$[rsp]
  00088	48 8b 4c 24 30	 mov	 rcx, QWORD PTR f$[rsp]
  0008d	e8 00 00 00 00	 call	 stbi_load_from_file_16
  00092	48 89 44 24 38	 mov	 QWORD PTR result$[rsp], rax

; 1406 :    fclose(f);

  00097	48 8b 4c 24 30	 mov	 rcx, QWORD PTR f$[rsp]
  0009c	ff 15 00 00 00
	00		 call	 QWORD PTR __imp_fclose

; 1407 :    return result;

  000a2	48 8b 44 24 38	 mov	 rax, QWORD PTR result$[rsp]
$LN1@stbi_load_:

; 1408 : }

  000a7	48 83 c4 50	 add	 rsp, 80			; 00000050H
  000ab	5f		 pop	 rdi
  000ac	c3		 ret	 0
stbi_load_16 ENDP
_TEXT	ENDS
; Function compile flags: /Odtp /RTCsu
; File C:\Users\drago\source\repos\cGame - less comments\cGame\includes\stb-master\stb_image.h
_TEXT	SEGMENT
s$ = 64
__$ArrayPad$ = 304
buffer$ = 336
len$ = 344
x$ = 352
y$ = 360
channels_in_file$ = 368
desired_channels$ = 376
stbi_load_16_from_memory PROC

; 1414 : {

$LN3:
  00000	4c 89 4c 24 20	 mov	 QWORD PTR [rsp+32], r9
  00005	4c 89 44 24 18	 mov	 QWORD PTR [rsp+24], r8
  0000a	89 54 24 10	 mov	 DWORD PTR [rsp+16], edx
  0000e	48 89 4c 24 08	 mov	 QWORD PTR [rsp+8], rcx
  00013	57		 push	 rdi
  00014	48 81 ec 40 01
	00 00		 sub	 rsp, 320		; 00000140H
  0001b	48 8d 7c 24 30	 lea	 rdi, QWORD PTR [rsp+48]
  00020	b9 44 00 00 00	 mov	 ecx, 68			; 00000044H
  00025	b8 cc cc cc cc	 mov	 eax, -858993460		; ccccccccH
  0002a	f3 ab		 rep stosd
  0002c	48 8b 8c 24 50
	01 00 00	 mov	 rcx, QWORD PTR [rsp+336]
  00034	48 8b 05 00 00
	00 00		 mov	 rax, QWORD PTR __security_cookie
  0003b	48 33 c4	 xor	 rax, rsp
  0003e	48 89 84 24 30
	01 00 00	 mov	 QWORD PTR __$ArrayPad$[rsp], rax
  00046	48 8d 0d 00 00
	00 00		 lea	 rcx, OFFSET FLAT:__D1DC2946_EntityManager@h
  0004d	e8 00 00 00 00	 call	 __CheckForDebuggerJustMyCode

; 1415 :    stbi__context s;
; 1416 :    stbi__start_mem(&s,buffer,len);

  00052	44 8b 84 24 58
	01 00 00	 mov	 r8d, DWORD PTR len$[rsp]
  0005a	48 8b 94 24 50
	01 00 00	 mov	 rdx, QWORD PTR buffer$[rsp]
  00062	48 8d 4c 24 40	 lea	 rcx, QWORD PTR s$[rsp]
  00067	e8 00 00 00 00	 call	 stbi__start_mem

; 1417 :    return stbi__load_and_postprocess_16bit(&s,x,y,channels_in_file,desired_channels);

  0006c	8b 84 24 78 01
	00 00		 mov	 eax, DWORD PTR desired_channels$[rsp]
  00073	89 44 24 20	 mov	 DWORD PTR [rsp+32], eax
  00077	4c 8b 8c 24 70
	01 00 00	 mov	 r9, QWORD PTR channels_in_file$[rsp]
  0007f	4c 8b 84 24 68
	01 00 00	 mov	 r8, QWORD PTR y$[rsp]
  00087	48 8b 94 24 60
	01 00 00	 mov	 rdx, QWORD PTR x$[rsp]
  0008f	48 8d 4c 24 40	 lea	 rcx, QWORD PTR s$[rsp]
  00094	e8 00 00 00 00	 call	 stbi__load_and_postprocess_16bit

; 1418 : }

  00099	48 8b f8	 mov	 rdi, rax
  0009c	48 8b cc	 mov	 rcx, rsp
  0009f	48 8d 15 00 00
	00 00		 lea	 rdx, OFFSET FLAT:stbi_load_16_from_memory$rtcFrameData
  000a6	e8 00 00 00 00	 call	 _RTC_CheckStackVars
  000ab	48 8b c7	 mov	 rax, rdi
  000ae	48 8b 8c 24 30
	01 00 00	 mov	 rcx, QWORD PTR __$ArrayPad$[rsp]
  000b6	48 33 cc	 xor	 rcx, rsp
  000b9	e8 00 00 00 00	 call	 __security_check_cookie
  000be	48 81 c4 40 01
	00 00		 add	 rsp, 320		; 00000140H
  000c5	5f		 pop	 rdi
  000c6	c3		 ret	 0
stbi_load_16_from_memory ENDP
_TEXT	ENDS
; Function compile flags: /Odtp /RTCsu
; File C:\Users\drago\source\repos\cGame - less comments\cGame\includes\stb-master\stb_image.h
_TEXT	SEGMENT
s$ = 64
__$ArrayPad$ = 304
clbk$ = 336
user$ = 344
x$ = 352
y$ = 360
channels_in_file$ = 368
desired_channels$ = 376
stbi_load_16_from_callbacks PROC

; 1421 : {

$LN3:
  00000	4c 89 4c 24 20	 mov	 QWORD PTR [rsp+32], r9
  00005	4c 89 44 24 18	 mov	 QWORD PTR [rsp+24], r8
  0000a	48 89 54 24 10	 mov	 QWORD PTR [rsp+16], rdx
  0000f	48 89 4c 24 08	 mov	 QWORD PTR [rsp+8], rcx
  00014	57		 push	 rdi
  00015	48 81 ec 40 01
	00 00		 sub	 rsp, 320		; 00000140H
  0001c	48 8d 7c 24 30	 lea	 rdi, QWORD PTR [rsp+48]
  00021	b9 44 00 00 00	 mov	 ecx, 68			; 00000044H
  00026	b8 cc cc cc cc	 mov	 eax, -858993460		; ccccccccH
  0002b	f3 ab		 rep stosd
  0002d	48 8b 8c 24 50
	01 00 00	 mov	 rcx, QWORD PTR [rsp+336]
  00035	48 8b 05 00 00
	00 00		 mov	 rax, QWORD PTR __security_cookie
  0003c	48 33 c4	 xor	 rax, rsp
  0003f	48 89 84 24 30
	01 00 00	 mov	 QWORD PTR __$ArrayPad$[rsp], rax
  00047	48 8d 0d 00 00
	00 00		 lea	 rcx, OFFSET FLAT:__D1DC2946_EntityManager@h
  0004e	e8 00 00 00 00	 call	 __CheckForDebuggerJustMyCode

; 1422 :    stbi__context s;
; 1423 :    stbi__start_callbacks(&s, (stbi_io_callbacks *)clbk, user);

  00053	4c 8b 84 24 58
	01 00 00	 mov	 r8, QWORD PTR user$[rsp]
  0005b	48 8b 94 24 50
	01 00 00	 mov	 rdx, QWORD PTR clbk$[rsp]
  00063	48 8d 4c 24 40	 lea	 rcx, QWORD PTR s$[rsp]
  00068	e8 00 00 00 00	 call	 stbi__start_callbacks

; 1424 :    return stbi__load_and_postprocess_16bit(&s,x,y,channels_in_file,desired_channels);

  0006d	8b 84 24 78 01
	00 00		 mov	 eax, DWORD PTR desired_channels$[rsp]
  00074	89 44 24 20	 mov	 DWORD PTR [rsp+32], eax
  00078	4c 8b 8c 24 70
	01 00 00	 mov	 r9, QWORD PTR channels_in_file$[rsp]
  00080	4c 8b 84 24 68
	01 00 00	 mov	 r8, QWORD PTR y$[rsp]
  00088	48 8b 94 24 60
	01 00 00	 mov	 rdx, QWORD PTR x$[rsp]
  00090	48 8d 4c 24 40	 lea	 rcx, QWORD PTR s$[rsp]
  00095	e8 00 00 00 00	 call	 stbi__load_and_postprocess_16bit

; 1425 : }

  0009a	48 8b f8	 mov	 rdi, rax
  0009d	48 8b cc	 mov	 rcx, rsp
  000a0	48 8d 15 00 00
	00 00		 lea	 rdx, OFFSET FLAT:stbi_load_16_from_callbacks$rtcFrameData
  000a7	e8 00 00 00 00	 call	 _RTC_CheckStackVars
  000ac	48 8b c7	 mov	 rax, rdi
  000af	48 8b 8c 24 30
	01 00 00	 mov	 rcx, QWORD PTR __$ArrayPad$[rsp]
  000b7	48 33 cc	 xor	 rcx, rsp
  000ba	e8 00 00 00 00	 call	 __security_check_cookie
  000bf	48 81 c4 40 01
	00 00		 add	 rsp, 320		; 00000140H
  000c6	5f		 pop	 rdi
  000c7	c3		 ret	 0
stbi_load_16_from_callbacks ENDP
_TEXT	ENDS
; Function compile flags: /Odtp /RTCsu
; File C:\Users\drago\source\repos\cGame - less comments\cGame\includes\stb-master\stb_image.h
_TEXT	SEGMENT
s$ = 64
__$ArrayPad$ = 304
buffer$ = 336
len$ = 344
x$ = 352
y$ = 360
comp$ = 368
req_comp$ = 376
stbi_load_from_memory PROC

; 1428 : {

$LN3:
  00000	4c 89 4c 24 20	 mov	 QWORD PTR [rsp+32], r9
  00005	4c 89 44 24 18	 mov	 QWORD PTR [rsp+24], r8
  0000a	89 54 24 10	 mov	 DWORD PTR [rsp+16], edx
  0000e	48 89 4c 24 08	 mov	 QWORD PTR [rsp+8], rcx
  00013	57		 push	 rdi
  00014	48 81 ec 40 01
	00 00		 sub	 rsp, 320		; 00000140H
  0001b	48 8d 7c 24 30	 lea	 rdi, QWORD PTR [rsp+48]
  00020	b9 44 00 00 00	 mov	 ecx, 68			; 00000044H
  00025	b8 cc cc cc cc	 mov	 eax, -858993460		; ccccccccH
  0002a	f3 ab		 rep stosd
  0002c	48 8b 8c 24 50
	01 00 00	 mov	 rcx, QWORD PTR [rsp+336]
  00034	48 8b 05 00 00
	00 00		 mov	 rax, QWORD PTR __security_cookie
  0003b	48 33 c4	 xor	 rax, rsp
  0003e	48 89 84 24 30
	01 00 00	 mov	 QWORD PTR __$ArrayPad$[rsp], rax
  00046	48 8d 0d 00 00
	00 00		 lea	 rcx, OFFSET FLAT:__D1DC2946_EntityManager@h
  0004d	e8 00 00 00 00	 call	 __CheckForDebuggerJustMyCode

; 1429 :    stbi__context s;
; 1430 :    stbi__start_mem(&s,buffer,len);

  00052	44 8b 84 24 58
	01 00 00	 mov	 r8d, DWORD PTR len$[rsp]
  0005a	48 8b 94 24 50
	01 00 00	 mov	 rdx, QWORD PTR buffer$[rsp]
  00062	48 8d 4c 24 40	 lea	 rcx, QWORD PTR s$[rsp]
  00067	e8 00 00 00 00	 call	 stbi__start_mem

; 1431 :    return stbi__load_and_postprocess_8bit(&s,x,y,comp,req_comp);

  0006c	8b 84 24 78 01
	00 00		 mov	 eax, DWORD PTR req_comp$[rsp]
  00073	89 44 24 20	 mov	 DWORD PTR [rsp+32], eax
  00077	4c 8b 8c 24 70
	01 00 00	 mov	 r9, QWORD PTR comp$[rsp]
  0007f	4c 8b 84 24 68
	01 00 00	 mov	 r8, QWORD PTR y$[rsp]
  00087	48 8b 94 24 60
	01 00 00	 mov	 rdx, QWORD PTR x$[rsp]
  0008f	48 8d 4c 24 40	 lea	 rcx, QWORD PTR s$[rsp]
  00094	e8 00 00 00 00	 call	 stbi__load_and_postprocess_8bit

; 1432 : }

  00099	48 8b f8	 mov	 rdi, rax
  0009c	48 8b cc	 mov	 rcx, rsp
  0009f	48 8d 15 00 00
	00 00		 lea	 rdx, OFFSET FLAT:stbi_load_from_memory$rtcFrameData
  000a6	e8 00 00 00 00	 call	 _RTC_CheckStackVars
  000ab	48 8b c7	 mov	 rax, rdi
  000ae	48 8b 8c 24 30
	01 00 00	 mov	 rcx, QWORD PTR __$ArrayPad$[rsp]
  000b6	48 33 cc	 xor	 rcx, rsp
  000b9	e8 00 00 00 00	 call	 __security_check_cookie
  000be	48 81 c4 40 01
	00 00		 add	 rsp, 320		; 00000140H
  000c5	5f		 pop	 rdi
  000c6	c3		 ret	 0
stbi_load_from_memory ENDP
_TEXT	ENDS
; Function compile flags: /Odtp /RTCsu
; File C:\Users\drago\source\repos\cGame - less comments\cGame\includes\stb-master\stb_image.h
_TEXT	SEGMENT
s$ = 64
__$ArrayPad$ = 304
clbk$ = 336
user$ = 344
x$ = 352
y$ = 360
comp$ = 368
req_comp$ = 376
stbi_load_from_callbacks PROC

; 1435 : {

$LN3:
  00000	4c 89 4c 24 20	 mov	 QWORD PTR [rsp+32], r9
  00005	4c 89 44 24 18	 mov	 QWORD PTR [rsp+24], r8
  0000a	48 89 54 24 10	 mov	 QWORD PTR [rsp+16], rdx
  0000f	48 89 4c 24 08	 mov	 QWORD PTR [rsp+8], rcx
  00014	57		 push	 rdi
  00015	48 81 ec 40 01
	00 00		 sub	 rsp, 320		; 00000140H
  0001c	48 8d 7c 24 30	 lea	 rdi, QWORD PTR [rsp+48]
  00021	b9 44 00 00 00	 mov	 ecx, 68			; 00000044H
  00026	b8 cc cc cc cc	 mov	 eax, -858993460		; ccccccccH
  0002b	f3 ab		 rep stosd
  0002d	48 8b 8c 24 50
	01 00 00	 mov	 rcx, QWORD PTR [rsp+336]
  00035	48 8b 05 00 00
	00 00		 mov	 rax, QWORD PTR __security_cookie
  0003c	48 33 c4	 xor	 rax, rsp
  0003f	48 89 84 24 30
	01 00 00	 mov	 QWORD PTR __$ArrayPad$[rsp], rax
  00047	48 8d 0d 00 00
	00 00		 lea	 rcx, OFFSET FLAT:__D1DC2946_EntityManager@h
  0004e	e8 00 00 00 00	 call	 __CheckForDebuggerJustMyCode

; 1436 :    stbi__context s;
; 1437 :    stbi__start_callbacks(&s, (stbi_io_callbacks *) clbk, user);

  00053	4c 8b 84 24 58
	01 00 00	 mov	 r8, QWORD PTR user$[rsp]
  0005b	48 8b 94 24 50
	01 00 00	 mov	 rdx, QWORD PTR clbk$[rsp]
  00063	48 8d 4c 24 40	 lea	 rcx, QWORD PTR s$[rsp]
  00068	e8 00 00 00 00	 call	 stbi__start_callbacks

; 1438 :    return stbi__load_and_postprocess_8bit(&s,x,y,comp,req_comp);

  0006d	8b 84 24 78 01
	00 00		 mov	 eax, DWORD PTR req_comp$[rsp]
  00074	89 44 24 20	 mov	 DWORD PTR [rsp+32], eax
  00078	4c 8b 8c 24 70
	01 00 00	 mov	 r9, QWORD PTR comp$[rsp]
  00080	4c 8b 84 24 68
	01 00 00	 mov	 r8, QWORD PTR y$[rsp]
  00088	48 8b 94 24 60
	01 00 00	 mov	 rdx, QWORD PTR x$[rsp]
  00090	48 8d 4c 24 40	 lea	 rcx, QWORD PTR s$[rsp]
  00095	e8 00 00 00 00	 call	 stbi__load_and_postprocess_8bit

; 1439 : }

  0009a	48 8b f8	 mov	 rdi, rax
  0009d	48 8b cc	 mov	 rcx, rsp
  000a0	48 8d 15 00 00
	00 00		 lea	 rdx, OFFSET FLAT:stbi_load_from_callbacks$rtcFrameData
  000a7	e8 00 00 00 00	 call	 _RTC_CheckStackVars
  000ac	48 8b c7	 mov	 rax, rdi
  000af	48 8b 8c 24 30
	01 00 00	 mov	 rcx, QWORD PTR __$ArrayPad$[rsp]
  000b7	48 33 cc	 xor	 rcx, rsp
  000ba	e8 00 00 00 00	 call	 __security_check_cookie
  000bf	48 81 c4 40 01
	00 00		 add	 rsp, 320		; 00000140H
  000c6	5f		 pop	 rdi
  000c7	c3		 ret	 0
stbi_load_from_callbacks ENDP
_TEXT	ENDS
; Function compile flags: /Odtp /RTCsu
; File C:\Users\drago\source\repos\cGame - less comments\cGame\includes\stb-master\stb_image.h
_TEXT	SEGMENT
result$ = 64
s$ = 96
tv82 = 336
__$ArrayPad$ = 344
buffer$ = 368
len$ = 376
delays$ = 384
x$ = 392
y$ = 400
z$ = 408
comp$ = 416
req_comp$ = 424
stbi_load_gif_from_memory PROC

; 1443 : {

$LN6:
  00000	4c 89 4c 24 20	 mov	 QWORD PTR [rsp+32], r9
  00005	4c 89 44 24 18	 mov	 QWORD PTR [rsp+24], r8
  0000a	89 54 24 10	 mov	 DWORD PTR [rsp+16], edx
  0000e	48 89 4c 24 08	 mov	 QWORD PTR [rsp+8], rcx
  00013	57		 push	 rdi
  00014	48 81 ec 60 01
	00 00		 sub	 rsp, 352		; 00000160H
  0001b	48 8d 7c 24 40	 lea	 rdi, QWORD PTR [rsp+64]
  00020	b9 48 00 00 00	 mov	 ecx, 72			; 00000048H
  00025	b8 cc cc cc cc	 mov	 eax, -858993460		; ccccccccH
  0002a	f3 ab		 rep stosd
  0002c	48 8b 8c 24 70
	01 00 00	 mov	 rcx, QWORD PTR [rsp+368]
  00034	48 8b 05 00 00
	00 00		 mov	 rax, QWORD PTR __security_cookie
  0003b	48 33 c4	 xor	 rax, rsp
  0003e	48 89 84 24 58
	01 00 00	 mov	 QWORD PTR __$ArrayPad$[rsp], rax
  00046	48 8d 0d 00 00
	00 00		 lea	 rcx, OFFSET FLAT:__D1DC2946_EntityManager@h
  0004d	e8 00 00 00 00	 call	 __CheckForDebuggerJustMyCode

; 1444 :    unsigned char *result;
; 1445 :    stbi__context s;
; 1446 :    stbi__start_mem(&s,buffer,len);

  00052	44 8b 84 24 78
	01 00 00	 mov	 r8d, DWORD PTR len$[rsp]
  0005a	48 8b 94 24 70
	01 00 00	 mov	 rdx, QWORD PTR buffer$[rsp]
  00062	48 8d 4c 24 60	 lea	 rcx, QWORD PTR s$[rsp]
  00067	e8 00 00 00 00	 call	 stbi__start_mem

; 1447 : 
; 1448 :    result = (unsigned char*) stbi__load_gif_main(&s, delays, x, y, z, comp, req_comp);

  0006c	8b 84 24 a8 01
	00 00		 mov	 eax, DWORD PTR req_comp$[rsp]
  00073	89 44 24 30	 mov	 DWORD PTR [rsp+48], eax
  00077	48 8b 84 24 a0
	01 00 00	 mov	 rax, QWORD PTR comp$[rsp]
  0007f	48 89 44 24 28	 mov	 QWORD PTR [rsp+40], rax
  00084	48 8b 84 24 98
	01 00 00	 mov	 rax, QWORD PTR z$[rsp]
  0008c	48 89 44 24 20	 mov	 QWORD PTR [rsp+32], rax
  00091	4c 8b 8c 24 90
	01 00 00	 mov	 r9, QWORD PTR y$[rsp]
  00099	4c 8b 84 24 88
	01 00 00	 mov	 r8, QWORD PTR x$[rsp]
  000a1	48 8b 94 24 80
	01 00 00	 mov	 rdx, QWORD PTR delays$[rsp]
  000a9	48 8d 4c 24 60	 lea	 rcx, QWORD PTR s$[rsp]
  000ae	e8 00 00 00 00	 call	 stbi__load_gif_main
  000b3	48 89 44 24 40	 mov	 QWORD PTR result$[rsp], rax

; 1449 :    if (stbi__vertically_flip_on_load) {

  000b8	b8 00 00 00 00	 mov	 eax, OFFSET FLAT:stbi__vertically_flip_on_load_set
  000bd	8b c0		 mov	 eax, eax
  000bf	65 48 8b 0c 25
	58 00 00 00	 mov	 rcx, QWORD PTR gs:88
  000c8	48 8b 09	 mov	 rcx, QWORD PTR [rcx]
  000cb	83 3c 08 00	 cmp	 DWORD PTR [rax+rcx], 0
  000cf	74 1f		 je	 SHORT $LN4@stbi_load_
  000d1	b8 00 00 00 00	 mov	 eax, OFFSET FLAT:stbi__vertically_flip_on_load_local
  000d6	8b c0		 mov	 eax, eax
  000d8	65 48 8b 0c 25
	58 00 00 00	 mov	 rcx, QWORD PTR gs:88
  000e1	48 8b 09	 mov	 rcx, QWORD PTR [rcx]
  000e4	8b 04 08	 mov	 eax, DWORD PTR [rax+rcx]
  000e7	89 84 24 50 01
	00 00		 mov	 DWORD PTR tv82[rsp], eax
  000ee	eb 0d		 jmp	 SHORT $LN5@stbi_load_
$LN4@stbi_load_:
  000f0	8b 05 00 00 00
	00		 mov	 eax, DWORD PTR stbi__vertically_flip_on_load_global
  000f6	89 84 24 50 01
	00 00		 mov	 DWORD PTR tv82[rsp], eax
$LN5@stbi_load_:
  000fd	83 bc 24 50 01
	00 00 00	 cmp	 DWORD PTR tv82[rsp], 0
  00105	74 39		 je	 SHORT $LN2@stbi_load_

; 1450 :       stbi__vertical_flip_slices( result, *x, *y, *z, *comp );

  00107	48 8b 84 24 a0
	01 00 00	 mov	 rax, QWORD PTR comp$[rsp]
  0010f	8b 00		 mov	 eax, DWORD PTR [rax]
  00111	89 44 24 20	 mov	 DWORD PTR [rsp+32], eax
  00115	48 8b 84 24 98
	01 00 00	 mov	 rax, QWORD PTR z$[rsp]
  0011d	44 8b 08	 mov	 r9d, DWORD PTR [rax]
  00120	48 8b 84 24 90
	01 00 00	 mov	 rax, QWORD PTR y$[rsp]
  00128	44 8b 00	 mov	 r8d, DWORD PTR [rax]
  0012b	48 8b 84 24 88
	01 00 00	 mov	 rax, QWORD PTR x$[rsp]
  00133	8b 10		 mov	 edx, DWORD PTR [rax]
  00135	48 8b 4c 24 40	 mov	 rcx, QWORD PTR result$[rsp]
  0013a	e8 00 00 00 00	 call	 stbi__vertical_flip_slices
  0013f	90		 npad	 1
$LN2@stbi_load_:

; 1451 :    }
; 1452 : 
; 1453 :    return result;

  00140	48 8b 44 24 40	 mov	 rax, QWORD PTR result$[rsp]

; 1454 : }

  00145	48 8b f8	 mov	 rdi, rax
  00148	48 8b cc	 mov	 rcx, rsp
  0014b	48 8d 15 00 00
	00 00		 lea	 rdx, OFFSET FLAT:stbi_load_gif_from_memory$rtcFrameData
  00152	e8 00 00 00 00	 call	 _RTC_CheckStackVars
  00157	48 8b c7	 mov	 rax, rdi
  0015a	48 8b 8c 24 58
	01 00 00	 mov	 rcx, QWORD PTR __$ArrayPad$[rsp]
  00162	48 33 cc	 xor	 rcx, rsp
  00165	e8 00 00 00 00	 call	 __security_check_cookie
  0016a	48 81 c4 60 01
	00 00		 add	 rsp, 352		; 00000160H
  00171	5f		 pop	 rdi
  00172	c3		 ret	 0
stbi_load_gif_from_memory ENDP
_TEXT	ENDS
; Function compile flags: /Odtp /RTCsu
; File C:\Users\drago\source\repos\cGame - less comments\cGame\includes\stb-master\stb_image.h
_TEXT	SEGMENT
data$ = 48
ri$4 = 72
hdr_data$5 = 104
tv89 = 120
tv129 = 128
__$ArrayPad$ = 136
s$ = 160
x$ = 168
y$ = 176
comp$ = 184
req_comp$ = 192
stbi__loadf_main PROC

; 1459 : {

  00000	4c 89 4c 24 20	 mov	 QWORD PTR [rsp+32], r9
  00005	4c 89 44 24 18	 mov	 QWORD PTR [rsp+24], r8
  0000a	48 89 54 24 10	 mov	 QWORD PTR [rsp+16], rdx
  0000f	48 89 4c 24 08	 mov	 QWORD PTR [rsp+8], rcx
  00014	57		 push	 rdi
  00015	48 81 ec 90 00
	00 00		 sub	 rsp, 144		; 00000090H
  0001c	48 8d 7c 24 30	 lea	 rdi, QWORD PTR [rsp+48]
  00021	b9 18 00 00 00	 mov	 ecx, 24
  00026	b8 cc cc cc cc	 mov	 eax, -858993460		; ccccccccH
  0002b	f3 ab		 rep stosd
  0002d	48 8b 8c 24 a0
	00 00 00	 mov	 rcx, QWORD PTR [rsp+160]
  00035	48 8b 05 00 00
	00 00		 mov	 rax, QWORD PTR __security_cookie
  0003c	48 33 c4	 xor	 rax, rsp
  0003f	48 89 84 24 88
	00 00 00	 mov	 QWORD PTR __$ArrayPad$[rsp], rax
  00047	48 8d 0d 00 00
	00 00		 lea	 rcx, OFFSET FLAT:__D1DC2946_EntityManager@h
  0004e	e8 00 00 00 00	 call	 __CheckForDebuggerJustMyCode

; 1460 :    unsigned char *data;
; 1461 :    #ifndef STBI_NO_HDR
; 1462 :    if (stbi__hdr_test(s)) {

  00053	48 8b 8c 24 a0
	00 00 00	 mov	 rcx, QWORD PTR s$[rsp]
  0005b	e8 00 00 00 00	 call	 stbi__hdr_test
  00060	85 c0		 test	 eax, eax
  00062	74 7f		 je	 SHORT $LN2@stbi__load

; 1463 :       stbi__result_info ri;
; 1464 :       float *hdr_data = stbi__hdr_load(s,x,y,comp,req_comp, &ri);

  00064	48 8d 44 24 48	 lea	 rax, QWORD PTR ri$4[rsp]
  00069	48 89 44 24 28	 mov	 QWORD PTR [rsp+40], rax
  0006e	8b 84 24 c0 00
	00 00		 mov	 eax, DWORD PTR req_comp$[rsp]
  00075	89 44 24 20	 mov	 DWORD PTR [rsp+32], eax
  00079	4c 8b 8c 24 b8
	00 00 00	 mov	 r9, QWORD PTR comp$[rsp]
  00081	4c 8b 84 24 b0
	00 00 00	 mov	 r8, QWORD PTR y$[rsp]
  00089	48 8b 94 24 a8
	00 00 00	 mov	 rdx, QWORD PTR x$[rsp]
  00091	48 8b 8c 24 a0
	00 00 00	 mov	 rcx, QWORD PTR s$[rsp]
  00099	e8 00 00 00 00	 call	 stbi__hdr_load
  0009e	48 89 44 24 68	 mov	 QWORD PTR hdr_data$5[rsp], rax

; 1465 :       if (hdr_data)

  000a3	48 83 7c 24 68
	00		 cmp	 QWORD PTR hdr_data$5[rsp], 0
  000a9	74 2e		 je	 SHORT $LN3@stbi__load

; 1466 :          stbi__float_postprocess(hdr_data,x,y,comp,req_comp);

  000ab	8b 84 24 c0 00
	00 00		 mov	 eax, DWORD PTR req_comp$[rsp]
  000b2	89 44 24 20	 mov	 DWORD PTR [rsp+32], eax
  000b6	4c 8b 8c 24 b8
	00 00 00	 mov	 r9, QWORD PTR comp$[rsp]
  000be	4c 8b 84 24 b0
	00 00 00	 mov	 r8, QWORD PTR y$[rsp]
  000c6	48 8b 94 24 a8
	00 00 00	 mov	 rdx, QWORD PTR x$[rsp]
  000ce	48 8b 4c 24 68	 mov	 rcx, QWORD PTR hdr_data$5[rsp]
  000d3	e8 00 00 00 00	 call	 stbi__float_postprocess
  000d8	90		 npad	 1
$LN3@stbi__load:

; 1467 :       return hdr_data;

  000d9	48 8b 44 24 68	 mov	 rax, QWORD PTR hdr_data$5[rsp]
  000de	e9 ba 00 00 00	 jmp	 $LN1@stbi__load
$LN2@stbi__load:

; 1468 :    }
; 1469 :    #endif
; 1470 :    data = stbi__load_and_postprocess_8bit(s, x, y, comp, req_comp);

  000e3	8b 84 24 c0 00
	00 00		 mov	 eax, DWORD PTR req_comp$[rsp]
  000ea	89 44 24 20	 mov	 DWORD PTR [rsp+32], eax
  000ee	4c 8b 8c 24 b8
	00 00 00	 mov	 r9, QWORD PTR comp$[rsp]
  000f6	4c 8b 84 24 b0
	00 00 00	 mov	 r8, QWORD PTR y$[rsp]
  000fe	48 8b 94 24 a8
	00 00 00	 mov	 rdx, QWORD PTR x$[rsp]
  00106	48 8b 8c 24 a0
	00 00 00	 mov	 rcx, QWORD PTR s$[rsp]
  0010e	e8 00 00 00 00	 call	 stbi__load_and_postprocess_8bit
  00113	48 89 44 24 30	 mov	 QWORD PTR data$[rsp], rax

; 1471 :    if (data)

  00118	48 83 7c 24 30
	00		 cmp	 QWORD PTR data$[rsp], 0
  0011e	74 4b		 je	 SHORT $LN4@stbi__load

; 1472 :       return stbi__ldr_to_hdr(data, *x, *y, req_comp ? req_comp : *comp);

  00120	83 bc 24 c0 00
	00 00 00	 cmp	 DWORD PTR req_comp$[rsp], 0
  00128	74 0d		 je	 SHORT $LN6@stbi__load
  0012a	8b 84 24 c0 00
	00 00		 mov	 eax, DWORD PTR req_comp$[rsp]
  00131	89 44 24 78	 mov	 DWORD PTR tv89[rsp], eax
  00135	eb 0e		 jmp	 SHORT $LN7@stbi__load
$LN6@stbi__load:
  00137	48 8b 84 24 b8
	00 00 00	 mov	 rax, QWORD PTR comp$[rsp]
  0013f	8b 00		 mov	 eax, DWORD PTR [rax]
  00141	89 44 24 78	 mov	 DWORD PTR tv89[rsp], eax
$LN7@stbi__load:
  00145	44 8b 4c 24 78	 mov	 r9d, DWORD PTR tv89[rsp]
  0014a	48 8b 84 24 b0
	00 00 00	 mov	 rax, QWORD PTR y$[rsp]
  00152	44 8b 00	 mov	 r8d, DWORD PTR [rax]
  00155	48 8b 84 24 a8
	00 00 00	 mov	 rax, QWORD PTR x$[rsp]
  0015d	8b 10		 mov	 edx, DWORD PTR [rax]
  0015f	48 8b 4c 24 30	 mov	 rcx, QWORD PTR data$[rsp]
  00164	e8 00 00 00 00	 call	 stbi__ldr_to_hdr
  00169	eb 32		 jmp	 SHORT $LN1@stbi__load
$LN4@stbi__load:

; 1473 :    return stbi__errpf("unknown image type", "Image not of any known type, or corrupt");

  0016b	48 8d 0d 00 00
	00 00		 lea	 rcx, OFFSET FLAT:??_C@_0BD@CBEDEJPH@unknown?5image?5type@
  00172	e8 00 00 00 00	 call	 stbi__err
  00177	85 c0		 test	 eax, eax
  00179	74 0e		 je	 SHORT $LN8@stbi__load
  0017b	48 c7 84 24 80
	00 00 00 00 00
	00 00		 mov	 QWORD PTR tv129[rsp], 0
  00187	eb 0c		 jmp	 SHORT $LN9@stbi__load
$LN8@stbi__load:
  00189	48 c7 84 24 80
	00 00 00 00 00
	00 00		 mov	 QWORD PTR tv129[rsp], 0
$LN9@stbi__load:
  00195	48 8b 84 24 80
	00 00 00	 mov	 rax, QWORD PTR tv129[rsp]
$LN1@stbi__load:

; 1474 : }

  0019d	48 8b f8	 mov	 rdi, rax
  001a0	48 8b cc	 mov	 rcx, rsp
  001a3	48 8d 15 00 00
	00 00		 lea	 rdx, OFFSET FLAT:stbi__loadf_main$rtcFrameData
  001aa	e8 00 00 00 00	 call	 _RTC_CheckStackVars
  001af	48 8b c7	 mov	 rax, rdi
  001b2	48 8b 8c 24 88
	00 00 00	 mov	 rcx, QWORD PTR __$ArrayPad$[rsp]
  001ba	48 33 cc	 xor	 rcx, rsp
  001bd	e8 00 00 00 00	 call	 __security_check_cookie
  001c2	48 81 c4 90 00
	00 00		 add	 rsp, 144		; 00000090H
  001c9	5f		 pop	 rdi
  001ca	c3		 ret	 0
stbi__loadf_main ENDP
_TEXT	ENDS
; Function compile flags: /Odtp /RTCsu
; File C:\Users\drago\source\repos\cGame - less comments\cGame\includes\stb-master\stb_image.h
_TEXT	SEGMENT
s$ = 64
__$ArrayPad$ = 304
buffer$ = 336
len$ = 344
x$ = 352
y$ = 360
comp$ = 368
req_comp$ = 376
stbi_loadf_from_memory PROC

; 1477 : {

$LN3:
  00000	4c 89 4c 24 20	 mov	 QWORD PTR [rsp+32], r9
  00005	4c 89 44 24 18	 mov	 QWORD PTR [rsp+24], r8
  0000a	89 54 24 10	 mov	 DWORD PTR [rsp+16], edx
  0000e	48 89 4c 24 08	 mov	 QWORD PTR [rsp+8], rcx
  00013	57		 push	 rdi
  00014	48 81 ec 40 01
	00 00		 sub	 rsp, 320		; 00000140H
  0001b	48 8d 7c 24 30	 lea	 rdi, QWORD PTR [rsp+48]
  00020	b9 44 00 00 00	 mov	 ecx, 68			; 00000044H
  00025	b8 cc cc cc cc	 mov	 eax, -858993460		; ccccccccH
  0002a	f3 ab		 rep stosd
  0002c	48 8b 8c 24 50
	01 00 00	 mov	 rcx, QWORD PTR [rsp+336]
  00034	48 8b 05 00 00
	00 00		 mov	 rax, QWORD PTR __security_cookie
  0003b	48 33 c4	 xor	 rax, rsp
  0003e	48 89 84 24 30
	01 00 00	 mov	 QWORD PTR __$ArrayPad$[rsp], rax
  00046	48 8d 0d 00 00
	00 00		 lea	 rcx, OFFSET FLAT:__D1DC2946_EntityManager@h
  0004d	e8 00 00 00 00	 call	 __CheckForDebuggerJustMyCode

; 1478 :    stbi__context s;
; 1479 :    stbi__start_mem(&s,buffer,len);

  00052	44 8b 84 24 58
	01 00 00	 mov	 r8d, DWORD PTR len$[rsp]
  0005a	48 8b 94 24 50
	01 00 00	 mov	 rdx, QWORD PTR buffer$[rsp]
  00062	48 8d 4c 24 40	 lea	 rcx, QWORD PTR s$[rsp]
  00067	e8 00 00 00 00	 call	 stbi__start_mem

; 1480 :    return stbi__loadf_main(&s,x,y,comp,req_comp);

  0006c	8b 84 24 78 01
	00 00		 mov	 eax, DWORD PTR req_comp$[rsp]
  00073	89 44 24 20	 mov	 DWORD PTR [rsp+32], eax
  00077	4c 8b 8c 24 70
	01 00 00	 mov	 r9, QWORD PTR comp$[rsp]
  0007f	4c 8b 84 24 68
	01 00 00	 mov	 r8, QWORD PTR y$[rsp]
  00087	48 8b 94 24 60
	01 00 00	 mov	 rdx, QWORD PTR x$[rsp]
  0008f	48 8d 4c 24 40	 lea	 rcx, QWORD PTR s$[rsp]
  00094	e8 00 00 00 00	 call	 stbi__loadf_main

; 1481 : }

  00099	48 8b f8	 mov	 rdi, rax
  0009c	48 8b cc	 mov	 rcx, rsp
  0009f	48 8d 15 00 00
	00 00		 lea	 rdx, OFFSET FLAT:stbi_loadf_from_memory$rtcFrameData
  000a6	e8 00 00 00 00	 call	 _RTC_CheckStackVars
  000ab	48 8b c7	 mov	 rax, rdi
  000ae	48 8b 8c 24 30
	01 00 00	 mov	 rcx, QWORD PTR __$ArrayPad$[rsp]
  000b6	48 33 cc	 xor	 rcx, rsp
  000b9	e8 00 00 00 00	 call	 __security_check_cookie
  000be	48 81 c4 40 01
	00 00		 add	 rsp, 320		; 00000140H
  000c5	5f		 pop	 rdi
  000c6	c3		 ret	 0
stbi_loadf_from_memory ENDP
_TEXT	ENDS
; Function compile flags: /Odtp /RTCsu
; File C:\Users\drago\source\repos\cGame - less comments\cGame\includes\stb-master\stb_image.h
_TEXT	SEGMENT
s$ = 64
__$ArrayPad$ = 304
clbk$ = 336
user$ = 344
x$ = 352
y$ = 360
comp$ = 368
req_comp$ = 376
stbi_loadf_from_callbacks PROC

; 1484 : {

$LN3:
  00000	4c 89 4c 24 20	 mov	 QWORD PTR [rsp+32], r9
  00005	4c 89 44 24 18	 mov	 QWORD PTR [rsp+24], r8
  0000a	48 89 54 24 10	 mov	 QWORD PTR [rsp+16], rdx
  0000f	48 89 4c 24 08	 mov	 QWORD PTR [rsp+8], rcx
  00014	57		 push	 rdi
  00015	48 81 ec 40 01
	00 00		 sub	 rsp, 320		; 00000140H
  0001c	48 8d 7c 24 30	 lea	 rdi, QWORD PTR [rsp+48]
  00021	b9 44 00 00 00	 mov	 ecx, 68			; 00000044H
  00026	b8 cc cc cc cc	 mov	 eax, -858993460		; ccccccccH
  0002b	f3 ab		 rep stosd
  0002d	48 8b 8c 24 50
	01 00 00	 mov	 rcx, QWORD PTR [rsp+336]
  00035	48 8b 05 00 00
	00 00		 mov	 rax, QWORD PTR __security_cookie
  0003c	48 33 c4	 xor	 rax, rsp
  0003f	48 89 84 24 30
	01 00 00	 mov	 QWORD PTR __$ArrayPad$[rsp], rax
  00047	48 8d 0d 00 00
	00 00		 lea	 rcx, OFFSET FLAT:__D1DC2946_EntityManager@h
  0004e	e8 00 00 00 00	 call	 __CheckForDebuggerJustMyCode

; 1485 :    stbi__context s;
; 1486 :    stbi__start_callbacks(&s, (stbi_io_callbacks *) clbk, user);

  00053	4c 8b 84 24 58
	01 00 00	 mov	 r8, QWORD PTR user$[rsp]
  0005b	48 8b 94 24 50
	01 00 00	 mov	 rdx, QWORD PTR clbk$[rsp]
  00063	48 8d 4c 24 40	 lea	 rcx, QWORD PTR s$[rsp]
  00068	e8 00 00 00 00	 call	 stbi__start_callbacks

; 1487 :    return stbi__loadf_main(&s,x,y,comp,req_comp);

  0006d	8b 84 24 78 01
	00 00		 mov	 eax, DWORD PTR req_comp$[rsp]
  00074	89 44 24 20	 mov	 DWORD PTR [rsp+32], eax
  00078	4c 8b 8c 24 70
	01 00 00	 mov	 r9, QWORD PTR comp$[rsp]
  00080	4c 8b 84 24 68
	01 00 00	 mov	 r8, QWORD PTR y$[rsp]
  00088	48 8b 94 24 60
	01 00 00	 mov	 rdx, QWORD PTR x$[rsp]
  00090	48 8d 4c 24 40	 lea	 rcx, QWORD PTR s$[rsp]
  00095	e8 00 00 00 00	 call	 stbi__loadf_main

; 1488 : }

  0009a	48 8b f8	 mov	 rdi, rax
  0009d	48 8b cc	 mov	 rcx, rsp
  000a0	48 8d 15 00 00
	00 00		 lea	 rdx, OFFSET FLAT:stbi_loadf_from_callbacks$rtcFrameData
  000a7	e8 00 00 00 00	 call	 _RTC_CheckStackVars
  000ac	48 8b c7	 mov	 rax, rdi
  000af	48 8b 8c 24 30
	01 00 00	 mov	 rcx, QWORD PTR __$ArrayPad$[rsp]
  000b7	48 33 cc	 xor	 rcx, rsp
  000ba	e8 00 00 00 00	 call	 __security_check_cookie
  000bf	48 81 c4 40 01
	00 00		 add	 rsp, 320		; 00000140H
  000c6	5f		 pop	 rdi
  000c7	c3		 ret	 0
stbi_loadf_from_callbacks ENDP
_TEXT	ENDS
; Function compile flags: /Odtp /RTCsu
; File C:\Users\drago\source\repos\cGame - less comments\cGame\includes\stb-master\stb_image.h
_TEXT	SEGMENT
result$ = 48
f$ = 56
tv71 = 64
filename$ = 96
x$ = 104
y$ = 112
comp$ = 120
req_comp$ = 128
stbi_loadf PROC

; 1492 : {

$LN6:
  00000	4c 89 4c 24 20	 mov	 QWORD PTR [rsp+32], r9
  00005	4c 89 44 24 18	 mov	 QWORD PTR [rsp+24], r8
  0000a	48 89 54 24 10	 mov	 QWORD PTR [rsp+16], rdx
  0000f	48 89 4c 24 08	 mov	 QWORD PTR [rsp+8], rcx
  00014	57		 push	 rdi
  00015	48 83 ec 50	 sub	 rsp, 80			; 00000050H
  00019	48 8d 0d 00 00
	00 00		 lea	 rcx, OFFSET FLAT:__D1DC2946_EntityManager@h
  00020	e8 00 00 00 00	 call	 __CheckForDebuggerJustMyCode

; 1493 :    float *result;
; 1494 :    FILE *f = stbi__fopen(filename, "rb");

  00025	48 8d 15 00 00
	00 00		 lea	 rdx, OFFSET FLAT:??_C@_02JDPG@rb@
  0002c	48 8b 4c 24 60	 mov	 rcx, QWORD PTR filename$[rsp]
  00031	e8 00 00 00 00	 call	 stbi__fopen
  00036	48 89 44 24 38	 mov	 QWORD PTR f$[rsp], rax

; 1495 :    if (!f) return stbi__errpf("can't fopen", "Unable to open file");

  0003b	48 83 7c 24 38
	00		 cmp	 QWORD PTR f$[rsp], 0
  00041	75 2b		 jne	 SHORT $LN2@stbi_loadf
  00043	48 8d 0d 00 00
	00 00		 lea	 rcx, OFFSET FLAT:??_C@_0M@JPDHFAGK@can?8t?5fopen@
  0004a	e8 00 00 00 00	 call	 stbi__err
  0004f	85 c0		 test	 eax, eax
  00051	74 0b		 je	 SHORT $LN4@stbi_loadf
  00053	48 c7 44 24 40
	00 00 00 00	 mov	 QWORD PTR tv71[rsp], 0
  0005c	eb 09		 jmp	 SHORT $LN5@stbi_loadf
$LN4@stbi_loadf:
  0005e	48 c7 44 24 40
	00 00 00 00	 mov	 QWORD PTR tv71[rsp], 0
$LN5@stbi_loadf:
  00067	48 8b 44 24 40	 mov	 rax, QWORD PTR tv71[rsp]
  0006c	eb 39		 jmp	 SHORT $LN1@stbi_loadf
$LN2@stbi_loadf:

; 1496 :    result = stbi_loadf_from_file(f,x,y,comp,req_comp);

  0006e	8b 84 24 80 00
	00 00		 mov	 eax, DWORD PTR req_comp$[rsp]
  00075	89 44 24 20	 mov	 DWORD PTR [rsp+32], eax
  00079	4c 8b 4c 24 78	 mov	 r9, QWORD PTR comp$[rsp]
  0007e	4c 8b 44 24 70	 mov	 r8, QWORD PTR y$[rsp]
  00083	48 8b 54 24 68	 mov	 rdx, QWORD PTR x$[rsp]
  00088	48 8b 4c 24 38	 mov	 rcx, QWORD PTR f$[rsp]
  0008d	e8 00 00 00 00	 call	 stbi_loadf_from_file
  00092	48 89 44 24 30	 mov	 QWORD PTR result$[rsp], rax

; 1497 :    fclose(f);

  00097	48 8b 4c 24 38	 mov	 rcx, QWORD PTR f$[rsp]
  0009c	ff 15 00 00 00
	00		 call	 QWORD PTR __imp_fclose

; 1498 :    return result;

  000a2	48 8b 44 24 30	 mov	 rax, QWORD PTR result$[rsp]
$LN1@stbi_loadf:

; 1499 : }

  000a7	48 83 c4 50	 add	 rsp, 80			; 00000050H
  000ab	5f		 pop	 rdi
  000ac	c3		 ret	 0
stbi_loadf ENDP
_TEXT	ENDS
; Function compile flags: /Odtp /RTCsu
; File C:\Users\drago\source\repos\cGame - less comments\cGame\includes\stb-master\stb_image.h
_TEXT	SEGMENT
s$ = 64
__$ArrayPad$ = 304
f$ = 336
x$ = 344
y$ = 352
comp$ = 360
req_comp$ = 368
stbi_loadf_from_file PROC

; 1502 : {

$LN3:
  00000	4c 89 4c 24 20	 mov	 QWORD PTR [rsp+32], r9
  00005	4c 89 44 24 18	 mov	 QWORD PTR [rsp+24], r8
  0000a	48 89 54 24 10	 mov	 QWORD PTR [rsp+16], rdx
  0000f	48 89 4c 24 08	 mov	 QWORD PTR [rsp+8], rcx
  00014	57		 push	 rdi
  00015	48 81 ec 40 01
	00 00		 sub	 rsp, 320		; 00000140H
  0001c	48 8d 7c 24 30	 lea	 rdi, QWORD PTR [rsp+48]
  00021	b9 44 00 00 00	 mov	 ecx, 68			; 00000044H
  00026	b8 cc cc cc cc	 mov	 eax, -858993460		; ccccccccH
  0002b	f3 ab		 rep stosd
  0002d	48 8b 8c 24 50
	01 00 00	 mov	 rcx, QWORD PTR [rsp+336]
  00035	48 8b 05 00 00
	00 00		 mov	 rax, QWORD PTR __security_cookie
  0003c	48 33 c4	 xor	 rax, rsp
  0003f	48 89 84 24 30
	01 00 00	 mov	 QWORD PTR __$ArrayPad$[rsp], rax
  00047	48 8d 0d 00 00
	00 00		 lea	 rcx, OFFSET FLAT:__D1DC2946_EntityManager@h
  0004e	e8 00 00 00 00	 call	 __CheckForDebuggerJustMyCode

; 1503 :    stbi__context s;
; 1504 :    stbi__start_file(&s,f);

  00053	48 8b 94 24 50
	01 00 00	 mov	 rdx, QWORD PTR f$[rsp]
  0005b	48 8d 4c 24 40	 lea	 rcx, QWORD PTR s$[rsp]
  00060	e8 00 00 00 00	 call	 stbi__start_file

; 1505 :    return stbi__loadf_main(&s,x,y,comp,req_comp);

  00065	8b 84 24 70 01
	00 00		 mov	 eax, DWORD PTR req_comp$[rsp]
  0006c	89 44 24 20	 mov	 DWORD PTR [rsp+32], eax
  00070	4c 8b 8c 24 68
	01 00 00	 mov	 r9, QWORD PTR comp$[rsp]
  00078	4c 8b 84 24 60
	01 00 00	 mov	 r8, QWORD PTR y$[rsp]
  00080	48 8b 94 24 58
	01 00 00	 mov	 rdx, QWORD PTR x$[rsp]
  00088	48 8d 4c 24 40	 lea	 rcx, QWORD PTR s$[rsp]
  0008d	e8 00 00 00 00	 call	 stbi__loadf_main

; 1506 : }

  00092	48 8b f8	 mov	 rdi, rax
  00095	48 8b cc	 mov	 rcx, rsp
  00098	48 8d 15 00 00
	00 00		 lea	 rdx, OFFSET FLAT:stbi_loadf_from_file$rtcFrameData
  0009f	e8 00 00 00 00	 call	 _RTC_CheckStackVars
  000a4	48 8b c7	 mov	 rax, rdi
  000a7	48 8b 8c 24 30
	01 00 00	 mov	 rcx, QWORD PTR __$ArrayPad$[rsp]
  000af	48 33 cc	 xor	 rcx, rsp
  000b2	e8 00 00 00 00	 call	 __security_check_cookie
  000b7	48 81 c4 40 01
	00 00		 add	 rsp, 320		; 00000140H
  000be	5f		 pop	 rdi
  000bf	c3		 ret	 0
stbi_loadf_from_file ENDP
_TEXT	ENDS
; Function compile flags: /Odtp /RTCsu
