; Listing generated by Microsoft (R) Optimizing Compiler Version 19.44.35211.0 

include listing.inc

INCLUDELIB OLDNAMES

PUBLIC	??_C@_01KDCPPGHE@r@				; `string'
EXTRN	__imp_strnlen:PROC
EXTRN	__imp_fgets:PROC
_DATA	ENDS
;	COMDAT ??_C@_01KDCPPGHE@r@
CONST	SEGMENT
??_C@_01KDCPPGHE@r@ DB 'r', 00H				; `string'
__8C83BECC_concurrencysal@h DB 01H
__608E3340_sal@h DB 01H
__FB67E29A_vadefs@h DB 01H
__1D1B619C_vcruntime@h DB 01H
__735960E1_corecrt@h DB 01H
__60B45B40_corecrt_stdio_config@h DB 01H
__CFA3741E_corecrt_wstdio@h DB 01H
__B3FE3303_stdio@h DB 01H
__13DE2371_errno@h DB 01H
__8C6AE390_vcruntime_string@h DB 01H
__8ACB2152_corecrt_memcpy_s@h DB 01H
__EA6C9D17_corecrt_memory@h DB 01H
__0DF2AF52_corecrt_wstring@h DB 01H
__6E889ECC_string@h DB 01H
__211DB995_corecrt_malloc@h DB 01H
__7CD62D9E_malloc@h DB 01H
__955456CD_stddef@h DB 01H
__99AED4FB_corecrt_search@h DB 01H
__8B813BF6_corecrt_wstdlib@h DB 01H
__3D1CA2C3_limits@h DB 01H
__E8FB0A68_stdlib@h DB 01H
__4C2AD0C7_winpackagefamily@h DB 01H
__9DED9ED1_winapifamily@h DB 01H
__12FEDF4E_sdkddkver@h DB 01H
__9BAEE128_excpt@h DB 01H
__B7B53233_stdarg@h DB 01H
__6B04FCB3_specstrings_undef@h DB 01H
__F4027AF7_specstrings_strict@h DB 01H
__B90340D4_sdv_driverspecs@h DB 01H
__BFFF5AD3_driverspecs@h DB 01H
__32847078_specstrings@h DB 01H
__108B2620_corecrt_wctype@h DB 01H
__6CD6613D_ctype@h DB 01H
__30902A1F_kernelspecs@h DB 01H
__376FD5CA_basetsd@h DB 01H
__9BEDF4DE_guiddef@h DB 01H
__51BFD2FE_pshpack4@h DB 01H
__31652CEA_poppack@h DB 01H
__5532AE4C_pshpack2@h DB 01H
__58A52B9A_pshpack8@h DB 01H
__57741015_pshpack1@h DB 01H
__CDE68C90_apiset@h DB 01H
__0BF06E8D_ktmtypes@h DB 01H
__40C200C0_winnt@h DB 01H
__9336F789_minwindef@h DB 01H
__55136115_windef@h DB 01H
__32205BF0_apisetcconv@h DB 01H
__B48FDEA0_minwinbase@h DB 01H
__3551B028_apiquery2@h DB 01H
__65BE04AA_processenv@h DB 01H
__4767CA46_fileapi@h DB 01H
__282E6C4B_fileapifromapp@h DB 01H
__393AF12C_debugapi@h DB 01H
__EBC502B8_utilapiset@h DB 01H
__1EAD8C69_handleapi@h DB 01H
__D8EF9B29_errhandlingapi@h DB 01H
__97FC1204_fibersapi@h DB 01H
__27448220_namedpipeapi@h DB 01H
__6EA33B2A_profileapi@h DB 01H
__EAC6F673_heapapi@h DB 01H
__D64EEA5A_ioapiset@h DB 01H
__144BD4B6_synchapi@h DB 01H
__03B1C640_interlockedapi@h DB 01H
__DC64CB38_processthreadsapi@h DB 01H
__D719B518_sysinfoapi@h DB 01H
__410385B1_memoryapi@h DB 01H
__C1AD45EF_enclaveapi@h DB 01H
__F4C3AA32_threadpoollegacyapiset@h DB 01H
__AC5A7A9F_threadpoolapiset@h DB 01H
__F5254B21_jobapi@h DB 01H
__BCEA6EE8_jobapi2@h DB 01H
__D18ACE72_wow64apiset@h DB 01H
__669B0D4A_libloaderapi@h DB 01H
__645F7034_securitybaseapi@h DB 01H
__67E58557_namespaceapi@h DB 01H
__599D9D3A_systemtopologyapi@h DB 01H
__2337E373_processtopologyapi@h DB 01H
__02BFF239_securityappcontainer@h DB 01H
__9C196272_realtimeapiset@h DB 01H
__5AB313A4_winerror@h DB 01H
__B7E7187B_timezoneapi@h DB 01H
__6DE9EB6F_winbase@h DB 01H
__56B2AFF2_wingdi@h DB 01H
__BA1161A9_tvout@h DB 01H
__0501A018_winuser@h DB 01H
__EF12FA99_datetimeapi@h DB 01H
__8FA7C3CA_winnls@h DB 01H
__390F0C47_stringapiset@h DB 01H
__28605B0A_wincontypes@h DB 01H
__BFBDE86D_consoleapi@h DB 01H
__C3CAFBF0_consoleapi2@h DB 01H
__C20891C7_consoleapi3@h DB 01H
__717C98B6_wincon@h DB 01H
__2884C177_verrsrc@h DB 01H
__A3FD3A34_winver@h DB 01H
__6F8AD9F1_reason@h DB 01H
__4C90FD6F_winreg@h DB 01H
__68AFEBAD_wnnc@h DB 01H
__5A7AB086_winnetwk@h DB 01H
__859C3CD3_cderr@h DB 01H
__81B12F1A_dde@h DB 01H
__DD3AF97A_ddeml@h DB 01H
__E6B47715_dlgs@h DB 01H
__944BD57D_lzexpand@h DB 01H
__E4B2DFC7_mmsyscom@h DB 01H
__5287D88F_mciapi@h DB 01H
__DBDC1384_mmiscapi@h DB 01H
__1A78C0D7_mmiscapi2@h DB 01H
__0D05975C_playsoundapi@h DB 01H
__757A63A9_mmeapi@h DB 01H
__6326AB05_timeapi@h DB 01H
__77D483B2_joystickapi@h DB 01H
__59CF7431_mmsystem@h DB 01H
__CEAC417E_nb30@h DB 01H
__3BA1A118_rpcdcep@h DB 01H
__74064437_rpcdce@h DB 01H
__90546602_rpcnsi@h DB 01H
__83114A2C_rpcnterr@h DB 01H
__CA67519E_rpcasync@h DB 01H
__D8CEBCD8_rpc@h DB 01H
__9F43AC2D_shellapi@h DB 01H
__6C8D3703_winperf@h DB 01H
__AB40A29E_inaddr@h DB 01H
__40D4FEA5_winsock@h DB 01H
__51394074_bcrypt@h DB 01H
__F177C154_ncrypt@h DB 01H
__1445529E_dpapi@h DB 01H
__5743FB20_wincrypt@h DB 01H
__97CA12BF_winefs@h DB 01H
__6DF63719_rpcnsip@h DB 01H
__031EFCA1_rpcsal@h DB 01H
__BA08D1DA_rpcndr@h DB 01H
__3A941F83_wtypesbase@h DB 01H
__C244FEE1_wtypes@h DB 01H
__FB7C5F97_winioctl@h DB 01H
__4B65E4AC_winsmcrd@h DB 01H
__1EA80168_winscard@h DB 01H
__516FC0F9_prsht@h DB 01H
__88BA11C6_winspool@h DB 01H
__18DB4C56_unknwnbase@h DB 01H
__1AE6FA1A_objidlbase@h DB 01H
__7F98E437_cguid@h DB 01H
__6B2DFB49_combaseapi@h DB 01H
__CB0E8B37_unknwn@h DB 01H
__D981EF0A_objidl@h DB 01H
__37089EB8_oaidl@h DB 01H
__CA2DDD8B_propidlbase@h DB 01H
__39ED323E_coml2api@h DB 01H
__78E82682_oleidl@h DB 01H
__97883CFE_servprov@h DB 01H
__CE01DDB9_msxml@h DB 01H
__A4784895_urlmon@h DB 01H
__325F1C97_propidl@h DB 01H
__D3D43343_objbase@h DB 01H
__B3A2AF1B_oleauto@h DB 01H
__5722A8AA_ole2@h DB 01H
__590A450A_commdlg@h DB 01H
__2FE8A10C_stralign@h DB 01H
__34558472_winsvc@h DB 01H
__058845F1_mcx@h DB 01H
__7F16006B_ime_cmodes@h DB 01H
__0A3AF599_imm@h DB 01H
__11B87C25_Windows@h DB 01H
__0B1C67B3_gl@h DB 01H
__D7C03EE9_glu@h DB 01H
__68CEEE37_glew@h DB 01H
__836A8CFC_stdint@h DB 01H
__129F966A_glfw3@h DB 01H
__5CFF7615_Debug@h DB 01H
__F2638511_stdbool@h DB 01H
__1D9A7FA2_corecrt_math@h DB 01H
__2E93F1C0_math@h DB 01H
__0A8909AB_vectors@h DB 01H
__E0493894_main@h DB 01H
__10CBA501_files@c DB 01H
PUBLIC	ReadSaveFile
pdata	SEGMENT
$pdata$ReadSaveFile DD imagerel $LN14
	DD	imagerel $LN14+602
	DD	imagerel $unwind$ReadSaveFile
$pdata$strnlen_s DD imagerel strnlen_s
	DD	imagerel strnlen_s+78
	DD	imagerel $unwind$strnlen_s
xdata	SEGMENT
$unwind$ReadSaveFile DD 033c19H
	DD	01a0111H
	DD	0700aH
	DD	imagerel __GSHandlerCheck
	DD	0c0H
$unwind$strnlen_s DD 020f01H
	DD	0700b520fH
_volmd	DD	0ffffffffH
	DDSymXIndex: 	FLAT:ReadSaveFile
	DD	034H
	DD	0241H
ReadSaveFile$rtcName$0 DB 066H
	DB	070H
	DB	074H
	DB	072H
	DB	00H
	ORG $+3
ReadSaveFile$rtcName$1 DB 062H
	DB	075H
	DB	066H
	DB	066H
	DB	065H
	DB	072H
	DB	00H
	ORG $+1
ReadSaveFile$rtcName$2 DB 073H
	DB	069H
	DB	06eH
	DB	067H
	DB	06cH
	DB	065H
	DB	04cH
	DB	069H
	DB	06eH
	DB	065H
	DB	00H
	ORG $+5
ReadSaveFile$rtcVarDesc DD 068H
	DD	08H
	DQ	FLAT:ReadSaveFile$rtcName$2
	DD	048H
	DD	08H
	DQ	FLAT:ReadSaveFile$rtcName$1
	DD	028H
	DD	08H
	DQ	FLAT:ReadSaveFile$rtcName$0
	ORG $+144
ReadSaveFile$rtcFrameData DD 03H
	DD	00H
	DQ	FLAT:ReadSaveFile$rtcVarDesc
; Function compile flags: /Odtp /RTCsu
; File C:\Program Files (x86)\Windows Kits\10\Include\10.0.26100.0\ucrt\string.h
_TEXT	SEGMENT
tv68 = 32
_String$ = 64
_MaxCount$ = 72
strnlen_s PROC

; 371  :     {

  00000	48 89 54 24 10	 mov	 QWORD PTR [rsp+16], rdx
  00005	48 89 4c 24 08	 mov	 QWORD PTR [rsp+8], rcx
  0000a	57		 push	 rdi
  0000b	48 83 ec 30	 sub	 rsp, 48			; 00000030H
  0000f	48 8d 0d 00 00
	00 00		 lea	 rcx, OFFSET FLAT:__6E889ECC_string@h
  00016	e8 00 00 00 00	 call	 __CheckForDebuggerJustMyCode

; 372  :         return _String == 0 ? 0 : strnlen(_String, _MaxCount);

  0001b	48 83 7c 24 40
	00		 cmp	 QWORD PTR _String$[rsp], 0
  00021	75 0b		 jne	 SHORT $LN3@strnlen_s
  00023	48 c7 44 24 20
	00 00 00 00	 mov	 QWORD PTR tv68[rsp], 0
  0002c	eb 15		 jmp	 SHORT $LN4@strnlen_s
$LN3@strnlen_s:
  0002e	48 8b 54 24 48	 mov	 rdx, QWORD PTR _MaxCount$[rsp]
  00033	48 8b 4c 24 40	 mov	 rcx, QWORD PTR _String$[rsp]
  00038	ff 15 00 00 00
	00		 call	 QWORD PTR __imp_strnlen
  0003e	48 89 44 24 20	 mov	 QWORD PTR tv68[rsp], rax
$LN4@strnlen_s:
  00043	48 8b 44 24 20	 mov	 rax, QWORD PTR tv68[rsp]

; 373  :     }

  00048	48 83 c4 30	 add	 rsp, 48			; 00000030H
  0004c	5f		 pop	 rdi
  0004d	c3		 ret	 0
strnlen_s ENDP
_TEXT	ENDS
; Function compile flags: /Odtp /RTCsu
; File C:\Users\drago\source\repos\cGame - less comments\cGame\files.c
; File C:\Program Files (x86)\Windows Kits\10\Include\10.0.26100.0\ucrt\string.h
; File C:\Users\drago\source\repos\cGame - less comments\cGame\files.c
; File C:\Program Files (x86)\Windows Kits\10\Include\10.0.26100.0\ucrt\string.h
; File C:\Users\drago\source\repos\cGame - less comments\cGame\files.c
; File C:\Program Files (x86)\Windows Kits\10\Include\10.0.26100.0\ucrt\string.h
; File C:\Users\drago\source\repos\cGame - less comments\cGame\files.c
_TEXT	SEGMENT
fptr$ = 40
aSingleLineSize$ = 56
buffer$ = 72
singleLine$ = 104
singleLineStrLen$ = 116
bufferStrlen$ = 120
curBufferSize$ = 128
$T6 = 144
$T7 = 152
_String$ = 160
_String$ = 168
tv152 = 176
tv155 = 184
__$ArrayPad$ = 192
src$ = 224
maxLineChar$ = 232
ReadSaveFile PROC

; 9    : char* ReadSaveFile(const char* src, const int maxLineChar) {

$LN14:
  00000	89 54 24 10	 mov	 DWORD PTR [rsp+16], edx
  00004	48 89 4c 24 08	 mov	 QWORD PTR [rsp+8], rcx
  00009	57		 push	 rdi
  0000a	48 81 ec d0 00
	00 00		 sub	 rsp, 208		; 000000d0H
  00011	48 8d 7c 24 20	 lea	 rdi, QWORD PTR [rsp+32]
  00016	b9 2c 00 00 00	 mov	 ecx, 44			; 0000002cH
  0001b	b8 cc cc cc cc	 mov	 eax, -858993460		; ccccccccH
  00020	f3 ab		 rep stosd
  00022	48 8b 8c 24 e0
	00 00 00	 mov	 rcx, QWORD PTR [rsp+224]
  0002a	48 8b 05 00 00
	00 00		 mov	 rax, QWORD PTR __security_cookie
  00031	48 33 c4	 xor	 rax, rsp
  00034	48 89 84 24 c0
	00 00 00	 mov	 QWORD PTR __$ArrayPad$[rsp], rax
  0003c	48 8d 0d 00 00
	00 00		 lea	 rcx, OFFSET FLAT:__460EF0CE_EntityManager@c
  00043	e8 00 00 00 00	 call	 __CheckForDebuggerJustMyCode

; 10   : 	FILE* fptr = NULL;

  00048	48 c7 44 24 28
	00 00 00 00	 mov	 QWORD PTR fptr$[rsp], 0

; 11   : 	fopen_s(&fptr, src, "r");

  00051	4c 8d 05 00 00
	00 00		 lea	 r8, OFFSET FLAT:??_C@_01KDCPPGHE@r@
  00058	48 8b 94 24 e0
	00 00 00	 mov	 rdx, QWORD PTR src$[rsp]
  00060	48 8d 4c 24 28	 lea	 rcx, QWORD PTR fptr$[rsp]
  00065	ff 15 00 00 00
	00		 call	 QWORD PTR __imp_fopen_s

; 12   : 	if (!fptr) DebugBreak();

  0006b	48 83 7c 24 28
	00		 cmp	 QWORD PTR fptr$[rsp], 0
  00071	75 07		 jne	 SHORT $LN4@ReadSaveFi
  00073	ff 15 00 00 00
	00		 call	 QWORD PTR __imp_DebugBreak
  00079	90		 npad	 1
$LN4@ReadSaveFi:

; 13   : 	rsize_t aSingleLineSize = sizeof(char) * maxLineChar;

  0007a	48 63 84 24 e8
	00 00 00	 movsxd	 rax, DWORD PTR maxLineChar$[rsp]
  00082	48 89 44 24 38	 mov	 QWORD PTR aSingleLineSize$[rsp], rax

; 14   : 	char* buffer;
; 15   : 	AllocNullStr(&buffer, aSingleLineSize);

  00087	8b 54 24 38	 mov	 edx, DWORD PTR aSingleLineSize$[rsp]
  0008b	48 8d 4c 24 48	 lea	 rcx, QWORD PTR buffer$[rsp]
  00090	e8 00 00 00 00	 call	 AllocNullStr

; 16   : 	char* singleLine;
; 17   : 	AllocNullStr(&singleLine, aSingleLineSize);

  00095	8b 54 24 38	 mov	 edx, DWORD PTR aSingleLineSize$[rsp]
  00099	48 8d 4c 24 68	 lea	 rcx, QWORD PTR singleLine$[rsp]
  0009e	e8 00 00 00 00	 call	 AllocNullStr

; 18   : 	int singleLineStrLen, bufferStrlen;
; 19   : 	rsize_t curBufferSize = aSingleLineSize;

  000a3	48 8b 44 24 38	 mov	 rax, QWORD PTR aSingleLineSize$[rsp]
  000a8	48 89 84 24 80
	00 00 00	 mov	 QWORD PTR curBufferSize$[rsp], rax
$LN2@ReadSaveFi:

; 20   : 	while (!feof(fptr)) {

  000b0	48 8b 4c 24 28	 mov	 rcx, QWORD PTR fptr$[rsp]
  000b5	ff 15 00 00 00
	00		 call	 QWORD PTR __imp_feof
  000bb	85 c0		 test	 eax, eax
  000bd	0f 85 4e 01 00
	00		 jne	 $LN3@ReadSaveFi

; 21   : 		fgets(singleLine, maxLineChar, fptr);

  000c3	4c 8b 44 24 28	 mov	 r8, QWORD PTR fptr$[rsp]
  000c8	8b 94 24 e8 00
	00 00		 mov	 edx, DWORD PTR maxLineChar$[rsp]
  000cf	48 8b 4c 24 68	 mov	 rcx, QWORD PTR singleLine$[rsp]
  000d4	ff 15 00 00 00
	00		 call	 QWORD PTR __imp_fgets

; 22   : 		singleLineStrLen = strnlen_s(singleLine, maxLineChar);

  000da	48 8b 44 24 68	 mov	 rax, QWORD PTR singleLine$[rsp]
  000df	48 89 84 24 a8
	00 00 00	 mov	 QWORD PTR _String$[rsp], rax
; File C:\Program Files (x86)\Windows Kits\10\Include\10.0.26100.0\ucrt\string.h

; 372  :         return _String == 0 ? 0 : strnlen(_String, _MaxCount);

  000e7	48 83 bc 24 a8
	00 00 00 00	 cmp	 QWORD PTR _String$[rsp], 0
  000f0	75 0e		 jne	 SHORT $LN8@ReadSaveFi
  000f2	48 c7 84 24 b0
	00 00 00 00 00
	00 00		 mov	 QWORD PTR tv152[rsp], 0
  000fe	eb 21		 jmp	 SHORT $LN9@ReadSaveFi
$LN8@ReadSaveFi:
; File C:\Users\drago\source\repos\cGame - less comments\cGame\files.c

; 22   : 		singleLineStrLen = strnlen_s(singleLine, maxLineChar);

  00100	48 63 84 24 e8
	00 00 00	 movsxd	 rax, DWORD PTR maxLineChar$[rsp]
; File C:\Program Files (x86)\Windows Kits\10\Include\10.0.26100.0\ucrt\string.h

; 372  :         return _String == 0 ? 0 : strnlen(_String, _MaxCount);

  00108	48 8b d0	 mov	 rdx, rax
  0010b	48 8b 8c 24 a8
	00 00 00	 mov	 rcx, QWORD PTR _String$[rsp]
  00113	ff 15 00 00 00
	00		 call	 QWORD PTR __imp_strnlen
  00119	48 89 84 24 b0
	00 00 00	 mov	 QWORD PTR tv152[rsp], rax
$LN9@ReadSaveFi:
  00121	48 8b 84 24 b0
	00 00 00	 mov	 rax, QWORD PTR tv152[rsp]
  00129	48 89 84 24 90
	00 00 00	 mov	 QWORD PTR $T6[rsp], rax
; File C:\Users\drago\source\repos\cGame - less comments\cGame\files.c

; 22   : 		singleLineStrLen = strnlen_s(singleLine, maxLineChar);

  00131	48 8b 84 24 90
	00 00 00	 mov	 rax, QWORD PTR $T6[rsp]
  00139	89 44 24 74	 mov	 DWORD PTR singleLineStrLen$[rsp], eax

; 23   : 		bufferStrlen = strnlen_s(buffer, curBufferSize);

  0013d	48 8b 44 24 48	 mov	 rax, QWORD PTR buffer$[rsp]
  00142	48 89 84 24 a0
	00 00 00	 mov	 QWORD PTR _String$[rsp], rax
; File C:\Program Files (x86)\Windows Kits\10\Include\10.0.26100.0\ucrt\string.h

; 372  :         return _String == 0 ? 0 : strnlen(_String, _MaxCount);

  0014a	48 83 bc 24 a0
	00 00 00 00	 cmp	 QWORD PTR _String$[rsp], 0
  00153	75 0e		 jne	 SHORT $LN12@ReadSaveFi
  00155	48 c7 84 24 b8
	00 00 00 00 00
	00 00		 mov	 QWORD PTR tv155[rsp], 0
  00161	eb 1e		 jmp	 SHORT $LN13@ReadSaveFi
$LN12@ReadSaveFi:
  00163	48 8b 94 24 80
	00 00 00	 mov	 rdx, QWORD PTR curBufferSize$[rsp]
  0016b	48 8b 8c 24 a0
	00 00 00	 mov	 rcx, QWORD PTR _String$[rsp]
  00173	ff 15 00 00 00
	00		 call	 QWORD PTR __imp_strnlen
  00179	48 89 84 24 b8
	00 00 00	 mov	 QWORD PTR tv155[rsp], rax
$LN13@ReadSaveFi:
  00181	48 8b 84 24 b8
	00 00 00	 mov	 rax, QWORD PTR tv155[rsp]
  00189	48 89 84 24 98
	00 00 00	 mov	 QWORD PTR $T7[rsp], rax
; File C:\Users\drago\source\repos\cGame - less comments\cGame\files.c

; 23   : 		bufferStrlen = strnlen_s(buffer, curBufferSize);

  00191	48 8b 84 24 98
	00 00 00	 mov	 rax, QWORD PTR $T7[rsp]
  00199	89 44 24 78	 mov	 DWORD PTR bufferStrlen$[rsp], eax

; 24   : 		curBufferSize = aSingleLineSize * sizeof(char) + bufferStrlen * sizeof(char) + sizeof(char);

  0019d	48 63 44 24 78	 movsxd	 rax, DWORD PTR bufferStrlen$[rsp]
  001a2	48 8b 4c 24 38	 mov	 rcx, QWORD PTR aSingleLineSize$[rsp]
  001a7	48 8d 44 01 01	 lea	 rax, QWORD PTR [rcx+rax+1]
  001ac	48 89 84 24 80
	00 00 00	 mov	 QWORD PTR curBufferSize$[rsp], rax

; 25   : 		buffer = (char*)realloc(buffer, curBufferSize);

  001b4	48 8b 94 24 80
	00 00 00	 mov	 rdx, QWORD PTR curBufferSize$[rsp]
  001bc	48 8b 4c 24 48	 mov	 rcx, QWORD PTR buffer$[rsp]
  001c1	ff 15 00 00 00
	00		 call	 QWORD PTR __imp_realloc
  001c7	48 89 44 24 48	 mov	 QWORD PTR buffer$[rsp], rax

; 26   : 		strcat_s(buffer, curBufferSize, singleLine);

  001cc	4c 8b 44 24 68	 mov	 r8, QWORD PTR singleLine$[rsp]
  001d1	48 8b 94 24 80
	00 00 00	 mov	 rdx, QWORD PTR curBufferSize$[rsp]
  001d9	48 8b 4c 24 48	 mov	 rcx, QWORD PTR buffer$[rsp]
  001de	ff 15 00 00 00
	00		 call	 QWORD PTR __imp_strcat_s

; 27   : 		singleLine = (char*)realloc(singleLine, sizeof(char) * singleLineStrLen + aSingleLineSize);

  001e4	48 63 44 24 74	 movsxd	 rax, DWORD PTR singleLineStrLen$[rsp]
  001e9	48 03 44 24 38	 add	 rax, QWORD PTR aSingleLineSize$[rsp]
  001ee	48 c7 c1 ff ff
	ff ff		 mov	 rcx, -1
  001f5	48 0f 42 c1	 cmovb	 rax, rcx
  001f9	48 8b d0	 mov	 rdx, rax
  001fc	48 8b 4c 24 68	 mov	 rcx, QWORD PTR singleLine$[rsp]
  00201	ff 15 00 00 00
	00		 call	 QWORD PTR __imp_realloc
  00207	48 89 44 24 68	 mov	 QWORD PTR singleLine$[rsp], rax

; 28   : 	}

  0020c	e9 9f fe ff ff	 jmp	 $LN2@ReadSaveFi
$LN3@ReadSaveFi:

; 29   : 	free(singleLine);

  00211	48 8b 4c 24 68	 mov	 rcx, QWORD PTR singleLine$[rsp]
  00216	ff 15 00 00 00
	00		 call	 QWORD PTR __imp_free

; 30   : 	fclose(fptr);

  0021c	48 8b 4c 24 28	 mov	 rcx, QWORD PTR fptr$[rsp]
  00221	ff 15 00 00 00
	00		 call	 QWORD PTR __imp_fclose

; 31   : 	return buffer;

  00227	48 8b 44 24 48	 mov	 rax, QWORD PTR buffer$[rsp]

; 32   : }

  0022c	48 8b f8	 mov	 rdi, rax
  0022f	48 8b cc	 mov	 rcx, rsp
  00232	48 8d 15 00 00
	00 00		 lea	 rdx, OFFSET FLAT:ReadSaveFile$rtcFrameData
  00239	e8 00 00 00 00	 call	 _RTC_CheckStackVars
  0023e	48 8b c7	 mov	 rax, rdi
  00241	48 8b 8c 24 c0
	00 00 00	 mov	 rcx, QWORD PTR __$ArrayPad$[rsp]
  00249	48 33 cc	 xor	 rcx, rsp
  0024c	e8 00 00 00 00	 call	 __security_check_cookie
  00251	48 81 c4 d0 00
	00 00		 add	 rsp, 208		; 000000d0H
  00258	5f		 pop	 rdi
  00259	c3		 ret	 0
ReadSaveFile ENDP
_TEXT	ENDS
END
