; Listing generated by Microsoft (R) Optimizing Compiler Version 19.44.35211.0 

include listing.inc

INCLUDELIB OLDNAMES

PUBLIC	collisionMatrix
PUBLIC	gravAccel
gravAccel DD	0c1180000r			; -9.5
collisionMatrix DQ 0000000000000001H
	DQ	0000000000000002H
	DQ	ffffffffffffffffH
	DQ	000000000000000bH
	DQ	ffffffffffffffffH
	DQ	ffffffffffffffffH
	DQ	ffffffffffffffffH
	DQ	ffffffffffffffffH
	DQ	ffffffffffffffffH
	DQ	ffffffffffffffffH
	DQ	ffffffffffffffffH
	DQ	ffffffffffffffffH
	DQ	ffffffffffffffffH
	DQ	ffffffffffffffffH
	DQ	ffffffffffffffffH
	DQ	ffffffffffffffffH
	DQ	ffffffffffffffffH
	DQ	ffffffffffffffffH
	DQ	ffffffffffffffffH
	DQ	ffffffffffffffffH
	DQ	ffffffffffffffffH
	DQ	ffffffffffffffffH
	DQ	ffffffffffffffffH
	DQ	ffffffffffffffffH
	DQ	ffffffffffffffffH
	DQ	ffffffffffffffffH
	DQ	ffffffffffffffffH
	DQ	ffffffffffffffffH
	DQ	ffffffffffffffffH
	DQ	ffffffffffffffffH
	DQ	ffffffffffffffffH
	DQ	ffffffffffffffffH
	DQ	ffffffffffffffffH
	DQ	ffffffffffffffffH
	DQ	ffffffffffffffffH
	DQ	ffffffffffffffffH
	DQ	ffffffffffffffffH
	DQ	ffffffffffffffffH
	DQ	ffffffffffffffffH
	DQ	ffffffffffffffffH
	DQ	ffffffffffffffffH
	DQ	ffffffffffffffffH
	DQ	ffffffffffffffffH
	DQ	ffffffffffffffffH
	DQ	ffffffffffffffffH
	DQ	ffffffffffffffffH
	DQ	ffffffffffffffffH
	DQ	ffffffffffffffffH
	DQ	ffffffffffffffffH
	DQ	ffffffffffffffffH
	DQ	ffffffffffffffffH
	DQ	ffffffffffffffffH
	DQ	ffffffffffffffffH
	DQ	ffffffffffffffffH
	DQ	ffffffffffffffffH
	DQ	ffffffffffffffffH
	DQ	ffffffffffffffffH
	DQ	ffffffffffffffffH
	DQ	ffffffffffffffffH
	DQ	ffffffffffffffffH
	DQ	ffffffffffffffffH
	DQ	ffffffffffffffffH
	DQ	ffffffffffffffffH
	DQ	ffffffffffffffffH
__4C2AD0C7_winpackagefamily@h DB 01H
__9DED9ED1_winapifamily@h DB 01H
__0B1C67B3_gl@h DB 01H
__D7C03EE9_glu@h DB 01H
__13490EC2_glew@h DB 01H
__F2638511_stdbool@h DB 01H
__8C83BECC_concurrencysal@h DB 01H
__608E3340_sal@h DB 01H
__FB67E29A_vadefs@h DB 01H
__1D1B619C_vcruntime@h DB 01H
__735960E1_corecrt@h DB 01H
__955456CD_stddef@h DB 01H
__836A8CFC_stdint@h DB 01H
__129F966A_glfw3@h DB 01H
__1D9A7FA2_corecrt_math@h DB 01H
__2E93F1C0_math@h DB 01H
__0A8909AB_vectors@h DB 01H
__12FEDF4E_sdkddkver@h DB 01H
__9BAEE128_excpt@h DB 01H
__B7B53233_stdarg@h DB 01H
__6B04FCB3_specstrings_undef@h DB 01H
__F4027AF7_specstrings_strict@h DB 01H
__B90340D4_sdv_driverspecs@h DB 01H
__BFFF5AD3_driverspecs@h DB 01H
__32847078_specstrings@h DB 01H
__108B2620_corecrt_wctype@h DB 01H
__6CD6613D_ctype@h DB 01H
__30902A1F_kernelspecs@h DB 01H
__376FD5CA_basetsd@h DB 01H
__13DE2371_errno@h DB 01H
__8C6AE390_vcruntime_string@h DB 01H
__8ACB2152_corecrt_memcpy_s@h DB 01H
__EA6C9D17_corecrt_memory@h DB 01H
__0DF2AF52_corecrt_wstring@h DB 01H
__6E889ECC_string@h DB 01H
__9BEDF4DE_guiddef@h DB 01H
__51BFD2FE_pshpack4@h DB 01H
__31652CEA_poppack@h DB 01H
__5532AE4C_pshpack2@h DB 01H
__58A52B9A_pshpack8@h DB 01H
__57741015_pshpack1@h DB 01H
__CDE68C90_apiset@h DB 01H
__0BF06E8D_ktmtypes@h DB 01H
__40C200C0_winnt@h DB 01H
__9336F789_minwindef@h DB 01H
__55136115_windef@h DB 01H
__32205BF0_apisetcconv@h DB 01H
__B48FDEA0_minwinbase@h DB 01H
__3551B028_apiquery2@h DB 01H
__65BE04AA_processenv@h DB 01H
__4767CA46_fileapi@h DB 01H
__282E6C4B_fileapifromapp@h DB 01H
__393AF12C_debugapi@h DB 01H
__EBC502B8_utilapiset@h DB 01H
__1EAD8C69_handleapi@h DB 01H
__D8EF9B29_errhandlingapi@h DB 01H
__97FC1204_fibersapi@h DB 01H
__27448220_namedpipeapi@h DB 01H
__6EA33B2A_profileapi@h DB 01H
__EAC6F673_heapapi@h DB 01H
__D64EEA5A_ioapiset@h DB 01H
__144BD4B6_synchapi@h DB 01H
__03B1C640_interlockedapi@h DB 01H
__DC64CB38_processthreadsapi@h DB 01H
__D719B518_sysinfoapi@h DB 01H
__410385B1_memoryapi@h DB 01H
__C1AD45EF_enclaveapi@h DB 01H
__F4C3AA32_threadpoollegacyapiset@h DB 01H
__AC5A7A9F_threadpoolapiset@h DB 01H
__F5254B21_jobapi@h DB 01H
__BCEA6EE8_jobapi2@h DB 01H
__D18ACE72_wow64apiset@h DB 01H
__669B0D4A_libloaderapi@h DB 01H
__645F7034_securitybaseapi@h DB 01H
__67E58557_namespaceapi@h DB 01H
__599D9D3A_systemtopologyapi@h DB 01H
__2337E373_processtopologyapi@h DB 01H
__02BFF239_securityappcontainer@h DB 01H
__9C196272_realtimeapiset@h DB 01H
__5AB313A4_winerror@h DB 01H
__B7E7187B_timezoneapi@h DB 01H
__6DE9EB6F_winbase@h DB 01H
__56B2AFF2_wingdi@h DB 01H
__BA1161A9_tvout@h DB 01H
__0501A018_winuser@h DB 01H
__EF12FA99_datetimeapi@h DB 01H
__8FA7C3CA_winnls@h DB 01H
__390F0C47_stringapiset@h DB 01H
__28605B0A_wincontypes@h DB 01H
__BFBDE86D_consoleapi@h DB 01H
__C3CAFBF0_consoleapi2@h DB 01H
__C20891C7_consoleapi3@h DB 01H
__717C98B6_wincon@h DB 01H
__2884C177_verrsrc@h DB 01H
__A3FD3A34_winver@h DB 01H
__6F8AD9F1_reason@h DB 01H
__4C90FD6F_winreg@h DB 01H
__68AFEBAD_wnnc@h DB 01H
__5A7AB086_winnetwk@h DB 01H
__859C3CD3_cderr@h DB 01H
__81B12F1A_dde@h DB 01H
__DD3AF97A_ddeml@h DB 01H
__E6B47715_dlgs@h DB 01H
__944BD57D_lzexpand@h DB 01H
__E4B2DFC7_mmsyscom@h DB 01H
__5287D88F_mciapi@h DB 01H
__DBDC1384_mmiscapi@h DB 01H
__1A78C0D7_mmiscapi2@h DB 01H
__0D05975C_playsoundapi@h DB 01H
__757A63A9_mmeapi@h DB 01H
__6326AB05_timeapi@h DB 01H
__77D483B2_joystickapi@h DB 01H
__59CF7431_mmsystem@h DB 01H
__CEAC417E_nb30@h DB 01H
__3BA1A118_rpcdcep@h DB 01H
__74064437_rpcdce@h DB 01H
__90546602_rpcnsi@h DB 01H
__83114A2C_rpcnterr@h DB 01H
__CA67519E_rpcasync@h DB 01H
__D8CEBCD8_rpc@h DB 01H
__9F43AC2D_shellapi@h DB 01H
__6C8D3703_winperf@h DB 01H
__AB40A29E_inaddr@h DB 01H
__40D4FEA5_winsock@h DB 01H
__51394074_bcrypt@h DB 01H
__F177C154_ncrypt@h DB 01H
__1445529E_dpapi@h DB 01H
__5743FB20_wincrypt@h DB 01H
__97CA12BF_winefs@h DB 01H
__6DF63719_rpcnsip@h DB 01H
__031EFCA1_rpcsal@h DB 01H
__BA08D1DA_rpcndr@h DB 01H
__3A941F83_wtypesbase@h DB 01H
__C244FEE1_wtypes@h DB 01H
__FB7C5F97_winioctl@h DB 01H
__4B65E4AC_winsmcrd@h DB 01H
__1EA80168_winscard@h DB 01H
__516FC0F9_prsht@h DB 01H
__88BA11C6_winspool@h DB 01H
__211DB995_corecrt_malloc@h DB 01H
__99AED4FB_corecrt_search@h DB 01H
__8B813BF6_corecrt_wstdlib@h DB 01H
__3D1CA2C3_limits@h DB 01H
__E8FB0A68_stdlib@h DB 01H
__18DB4C56_unknwnbase@h DB 01H
__1AE6FA1A_objidlbase@h DB 01H
__7F98E437_cguid@h DB 01H
__6B2DFB49_combaseapi@h DB 01H
__CB0E8B37_unknwn@h DB 01H
__D981EF0A_objidl@h DB 01H
__37089EB8_oaidl@h DB 01H
__CA2DDD8B_propidlbase@h DB 01H
__39ED323E_coml2api@h DB 01H
__78E82682_oleidl@h DB 01H
__97883CFE_servprov@h DB 01H
__CE01DDB9_msxml@h DB 01H
__A4784895_urlmon@h DB 01H
__325F1C97_propidl@h DB 01H
__D3D43343_objbase@h DB 01H
__B3A2AF1B_oleauto@h DB 01H
__5722A8AA_ole2@h DB 01H
__590A450A_commdlg@h DB 01H
__2FE8A10C_stralign@h DB 01H
__34558472_winsvc@h DB 01H
__058845F1_mcx@h DB 01H
__7F16006B_ime_cmodes@h DB 01H
__0A3AF599_imm@h DB 01H
__11B87C25_Windows@h DB 01H
__60B45B40_corecrt_stdio_config@h DB 01H
__CFA3741E_corecrt_wstdio@h DB 01H
__B3FE3303_stdio@h DB 01H
__E0493894_main@h DB 01H
__5CFF7615_Debug@h DB 01H
__565DCB0D_animations@h DB 01H
__294C502B_Mesh@h DB 01H
__D929D131_Physics@h DB 01H
__4EFB08B9_Physics@c DB 01H
PUBLIC	PhysicsInit
pdata	SEGMENT
$pdata$PhysicsInit DD imagerel $LN3
	DD	imagerel $LN3+45
	DD	imagerel $unwind$PhysicsInit
xdata	SEGMENT
$unwind$PhysicsInit DD 020601H
	DD	070023206H
; Function compile flags: /Odtp /RTCsu
; File C:\Users\drago\source\repos\cGame - less comments\cGame\Physics.c
_TEXT	SEGMENT
PhysicsInit PROC

; 78   : void PhysicsInit() {

$LN3:
  00000	40 57		 push	 rdi
  00002	48 83 ec 20	 sub	 rsp, 32			; 00000020H
  00006	48 8d 0d 00 00
	00 00		 lea	 rcx, OFFSET FLAT:__460EF0CE_EntityManager@c
  0000d	e8 00 00 00 00	 call	 __CheckForDebuggerJustMyCode

; 79   : 	logRefreshRate = logf(refreshRate);

  00012	f3 0f 10 05 00
	00 00 00	 movss	 xmm0, DWORD PTR refreshRate
  0001a	e8 00 00 00 00	 call	 logf
  0001f	f3 0f 11 05 00
	00 00 00	 movss	 DWORD PTR logRefreshRate, xmm0

; 80   : }

  00027	48 83 c4 20	 add	 rsp, 32			; 00000020H
  0002b	5f		 pop	 rdi
  0002c	c3		 ret	 0
PhysicsInit ENDP
_TEXT	ENDS
END
